
KIT_A2G_TC375_LITE.elf:     file format elf32-tricore

Sections:
Idx Name          Size      VMA       LMA       File off  Algn
  0 .CPU2.ustack  00000800  50014e00  50014e00  000003d4  2**0
                  ALLOC
  1 .CPU2.istack  00000400  50015700  50015700  000003d4  2**0
                  ALLOC
  2 .CPU2.csa     00002000  50015c00  50015c00  000003d4  2**0
                  ALLOC
  3 .CPU1.ustack  00000800  60038e00  60038e00  000003d4  2**0
                  ALLOC
  4 .CPU1.istack  00000400  60039700  60039700  000003d4  2**0
                  ALLOC
  5 .CPU1.csa     00002000  60039c00  60039c00  000003d4  2**0
                  ALLOC
  6 .CPU0.ustack  00000800  70038e00  70038e00  000003d4  2**0
                  ALLOC
  7 .CPU0.istack  00000400  70039700  70039700  000003d4  2**0
                  ALLOC
  8 .CPU0.csa     00002000  70039c00  70039c00  000003d4  2**0
                  ALLOC
  9 .start_tc0    0000000c  a0000000  a0000000  00004646  2**1
                  CONTENTS, ALLOC, LOAD, READONLY, CODE
 10 .traptab_tc0  00000100  80000100  80000100  000003e0  2**5
                  CONTENTS, ALLOC, LOAD, CODE
 11 .traptab_tc1  00000100  80300000  80300000  00004060  2**5
                  CONTENTS, ALLOC, LOAD, CODE
 12 .traptab_tc2  00000100  80300100  80300100  00004160  2**5
                  CONTENTS, ALLOC, LOAD, CODE
 13 .start_tc1    0000000c  a0300200  a0300200  00004652  2**1
                  CONTENTS, ALLOC, LOAD, READONLY, CODE
 14 .start_tc2    0000000c  a0300220  a0300220  0000465e  2**1
                  CONTENTS, ALLOC, LOAD, READONLY, CODE
 15 .inttab_tc0_000 00000000  802fe000  802fe000  0000560c  2**0
                  CONTENTS
 16 .inttab_tc0_001 00000000  802fe020  802fe020  0000560c  2**0
                  CONTENTS
 17 .inttab_tc0_002 00000000  802fe040  802fe040  0000560c  2**0
                  CONTENTS
 18 .inttab_tc0_003 00000000  802fe060  802fe060  0000560c  2**0
                  CONTENTS
 19 .inttab_tc0_004 00000000  802fe080  802fe080  0000560c  2**0
                  CONTENTS
 20 .inttab_tc0_005 00000000  802fe0a0  802fe0a0  0000560c  2**0
                  CONTENTS
 21 .inttab_tc0_006 00000000  802fe0c0  802fe0c0  0000560c  2**0
                  CONTENTS
 22 .inttab_tc0_007 00000000  802fe0e0  802fe0e0  0000560c  2**0
                  CONTENTS
 23 .inttab_tc0_008 00000000  802fe100  802fe100  0000560c  2**0
                  CONTENTS
 24 .inttab_tc0_009 00000000  802fe120  802fe120  0000560c  2**0
                  CONTENTS
 25 .inttab_tc0_00A 00000000  802fe140  802fe140  0000560c  2**0
                  CONTENTS
 26 .inttab_tc0_00B 00000000  802fe160  802fe160  0000560c  2**0
                  CONTENTS
 27 .inttab_tc0_00C 00000000  802fe180  802fe180  0000560c  2**0
                  CONTENTS
 28 .inttab_tc0_00D 00000000  802fe1a0  802fe1a0  0000560c  2**0
                  CONTENTS
 29 .inttab_tc0_00E 00000000  802fe1c0  802fe1c0  0000560c  2**0
                  CONTENTS
 30 .inttab_tc0_00F 00000000  802fe1e0  802fe1e0  0000560c  2**0
                  CONTENTS
 31 .inttab_tc0_010 00000000  802fe200  802fe200  0000560c  2**0
                  CONTENTS
 32 .inttab_tc0_011 00000000  802fe220  802fe220  0000560c  2**0
                  CONTENTS
 33 .inttab_tc0_012 00000000  802fe240  802fe240  0000560c  2**0
                  CONTENTS
 34 .inttab_tc0_013 00000000  802fe260  802fe260  0000560c  2**0
                  CONTENTS
 35 .inttab_tc0_014 00000000  802fe280  802fe280  0000560c  2**0
                  CONTENTS
 36 .inttab_tc0_015 00000000  802fe2a0  802fe2a0  0000560c  2**0
                  CONTENTS
 37 .inttab_tc0_016 00000000  802fe2c0  802fe2c0  0000560c  2**0
                  CONTENTS
 38 .inttab_tc0_017 00000000  802fe2e0  802fe2e0  0000560c  2**0
                  CONTENTS
 39 .inttab_tc0_018 00000000  802fe300  802fe300  0000560c  2**0
                  CONTENTS
 40 .inttab_tc0_019 00000000  802fe320  802fe320  0000560c  2**0
                  CONTENTS
 41 .inttab_tc0_01A 00000000  802fe340  802fe340  0000560c  2**0
                  CONTENTS
 42 .inttab_tc0_01B 00000000  802fe360  802fe360  0000560c  2**0
                  CONTENTS
 43 .inttab_tc0_01C 00000000  802fe380  802fe380  0000560c  2**0
                  CONTENTS
 44 .inttab_tc0_01D 00000000  802fe3a0  802fe3a0  0000560c  2**0
                  CONTENTS
 45 .inttab_tc0_01E 00000000  802fe3c0  802fe3c0  0000560c  2**0
                  CONTENTS
 46 .inttab_tc0_01F 00000000  802fe3e0  802fe3e0  0000560c  2**0
                  CONTENTS
 47 .inttab_tc0_020 00000000  802fe400  802fe400  0000560c  2**0
                  CONTENTS
 48 .inttab_tc0_021 00000000  802fe420  802fe420  0000560c  2**0
                  CONTENTS
 49 .inttab_tc0_022 00000000  802fe440  802fe440  0000560c  2**0
                  CONTENTS
 50 .inttab_tc0_023 00000000  802fe460  802fe460  0000560c  2**0
                  CONTENTS
 51 .inttab_tc0_024 00000000  802fe480  802fe480  0000560c  2**0
                  CONTENTS
 52 .inttab_tc0_025 00000000  802fe4a0  802fe4a0  0000560c  2**0
                  CONTENTS
 53 .inttab_tc0_026 00000000  802fe4c0  802fe4c0  0000560c  2**0
                  CONTENTS
 54 .inttab_tc0_027 00000000  802fe4e0  802fe4e0  0000560c  2**0
                  CONTENTS
 55 .inttab_tc0_028 00000000  802fe500  802fe500  0000560c  2**0
                  CONTENTS
 56 .inttab_tc0_029 00000000  802fe520  802fe520  0000560c  2**0
                  CONTENTS
 57 .inttab_tc0_02A 00000000  802fe540  802fe540  0000560c  2**0
                  CONTENTS
 58 .inttab_tc0_02B 00000000  802fe560  802fe560  0000560c  2**0
                  CONTENTS
 59 .inttab_tc0_02C 00000000  802fe580  802fe580  0000560c  2**0
                  CONTENTS
 60 .inttab_tc0_02D 00000000  802fe5a0  802fe5a0  0000560c  2**0
                  CONTENTS
 61 .inttab_tc0_02E 00000000  802fe5c0  802fe5c0  0000560c  2**0
                  CONTENTS
 62 .inttab_tc0_02F 00000000  802fe5e0  802fe5e0  0000560c  2**0
                  CONTENTS
 63 .inttab_tc0_030 00000000  802fe600  802fe600  0000560c  2**0
                  CONTENTS
 64 .inttab_tc0_031 00000000  802fe620  802fe620  0000560c  2**0
                  CONTENTS
 65 .inttab_tc0_032 00000000  802fe640  802fe640  0000560c  2**0
                  CONTENTS
 66 .inttab_tc0_033 00000000  802fe660  802fe660  0000560c  2**0
                  CONTENTS
 67 .inttab_tc0_034 00000000  802fe680  802fe680  0000560c  2**0
                  CONTENTS
 68 .inttab_tc0_035 00000000  802fe6a0  802fe6a0  0000560c  2**0
                  CONTENTS
 69 .inttab_tc0_036 00000000  802fe6c0  802fe6c0  0000560c  2**0
                  CONTENTS
 70 .inttab_tc0_037 00000000  802fe6e0  802fe6e0  0000560c  2**0
                  CONTENTS
 71 .inttab_tc0_038 00000000  802fe700  802fe700  0000560c  2**0
                  CONTENTS
 72 .inttab_tc0_039 00000000  802fe720  802fe720  0000560c  2**0
                  CONTENTS
 73 .inttab_tc0_03A 00000000  802fe740  802fe740  0000560c  2**0
                  CONTENTS
 74 .inttab_tc0_03B 00000000  802fe760  802fe760  0000560c  2**0
                  CONTENTS
 75 .inttab_tc0_03C 00000000  802fe780  802fe780  0000560c  2**0
                  CONTENTS
 76 .inttab_tc0_03D 00000000  802fe7a0  802fe7a0  0000560c  2**0
                  CONTENTS
 77 .inttab_tc0_03E 00000000  802fe7c0  802fe7c0  0000560c  2**0
                  CONTENTS
 78 .inttab_tc0_03F 00000000  802fe7e0  802fe7e0  0000560c  2**0
                  CONTENTS
 79 .inttab_tc0_040 00000000  802fe800  802fe800  0000560c  2**0
                  CONTENTS
 80 .inttab_tc0_041 00000000  802fe820  802fe820  0000560c  2**0
                  CONTENTS
 81 .inttab_tc0_042 00000000  802fe840  802fe840  0000560c  2**0
                  CONTENTS
 82 .inttab_tc0_043 00000000  802fe860  802fe860  0000560c  2**0
                  CONTENTS
 83 .inttab_tc0_044 00000000  802fe880  802fe880  0000560c  2**0
                  CONTENTS
 84 .inttab_tc0_045 00000000  802fe8a0  802fe8a0  0000560c  2**0
                  CONTENTS
 85 .inttab_tc0_046 00000000  802fe8c0  802fe8c0  0000560c  2**0
                  CONTENTS
 86 .inttab_tc0_047 00000000  802fe8e0  802fe8e0  0000560c  2**0
                  CONTENTS
 87 .inttab_tc0_048 00000000  802fe900  802fe900  0000560c  2**0
                  CONTENTS
 88 .inttab_tc0_049 00000000  802fe920  802fe920  0000560c  2**0
                  CONTENTS
 89 .inttab_tc0_04A 00000000  802fe940  802fe940  0000560c  2**0
                  CONTENTS
 90 .inttab_tc0_04B 00000000  802fe960  802fe960  0000560c  2**0
                  CONTENTS
 91 .inttab_tc0_04C 00000000  802fe980  802fe980  0000560c  2**0
                  CONTENTS
 92 .inttab_tc0_04D 00000000  802fe9a0  802fe9a0  0000560c  2**0
                  CONTENTS
 93 .inttab_tc0_04E 00000000  802fe9c0  802fe9c0  0000560c  2**0
                  CONTENTS
 94 .inttab_tc0_04F 00000000  802fe9e0  802fe9e0  0000560c  2**0
                  CONTENTS
 95 .inttab_tc0_050 00000000  802fea00  802fea00  0000560c  2**0
                  CONTENTS
 96 .inttab_tc0_051 00000000  802fea20  802fea20  0000560c  2**0
                  CONTENTS
 97 .inttab_tc0_052 00000000  802fea40  802fea40  0000560c  2**0
                  CONTENTS
 98 .inttab_tc0_053 00000000  802fea60  802fea60  0000560c  2**0
                  CONTENTS
 99 .inttab_tc0_054 00000000  802fea80  802fea80  0000560c  2**0
                  CONTENTS
100 .inttab_tc0_055 00000000  802feaa0  802feaa0  0000560c  2**0
                  CONTENTS
101 .inttab_tc0_056 00000000  802feac0  802feac0  0000560c  2**0
                  CONTENTS
102 .inttab_tc0_057 00000000  802feae0  802feae0  0000560c  2**0
                  CONTENTS
103 .inttab_tc0_058 00000000  802feb00  802feb00  0000560c  2**0
                  CONTENTS
104 .inttab_tc0_059 00000000  802feb20  802feb20  0000560c  2**0
                  CONTENTS
105 .inttab_tc0_05A 00000000  802feb40  802feb40  0000560c  2**0
                  CONTENTS
106 .inttab_tc0_05B 00000000  802feb60  802feb60  0000560c  2**0
                  CONTENTS
107 .inttab_tc0_05C 00000000  802feb80  802feb80  0000560c  2**0
                  CONTENTS
108 .inttab_tc0_05D 00000000  802feba0  802feba0  0000560c  2**0
                  CONTENTS
109 .inttab_tc0_05E 00000000  802febc0  802febc0  0000560c  2**0
                  CONTENTS
110 .inttab_tc0_05F 00000000  802febe0  802febe0  0000560c  2**0
                  CONTENTS
111 .inttab_tc0_060 00000000  802fec00  802fec00  0000560c  2**0
                  CONTENTS
112 .inttab_tc0_061 00000000  802fec20  802fec20  0000560c  2**0
                  CONTENTS
113 .inttab_tc0_062 00000000  802fec40  802fec40  0000560c  2**0
                  CONTENTS
114 .inttab_tc0_063 00000000  802fec60  802fec60  0000560c  2**0
                  CONTENTS
115 .inttab_tc0_064 00000000  802fec80  802fec80  0000560c  2**0
                  CONTENTS
116 .inttab_tc0_065 00000000  802feca0  802feca0  0000560c  2**0
                  CONTENTS
117 .inttab_tc0_066 00000000  802fecc0  802fecc0  0000560c  2**0
                  CONTENTS
118 .inttab_tc0_067 00000000  802fece0  802fece0  0000560c  2**0
                  CONTENTS
119 .inttab_tc0_068 00000000  802fed00  802fed00  0000560c  2**0
                  CONTENTS
120 .inttab_tc0_069 00000000  802fed20  802fed20  0000560c  2**0
                  CONTENTS
121 .inttab_tc0_06A 00000000  802fed40  802fed40  0000560c  2**0
                  CONTENTS
122 .inttab_tc0_06B 00000000  802fed60  802fed60  0000560c  2**0
                  CONTENTS
123 .inttab_tc0_06C 00000000  802fed80  802fed80  0000560c  2**0
                  CONTENTS
124 .inttab_tc0_06D 00000000  802feda0  802feda0  0000560c  2**0
                  CONTENTS
125 .inttab_tc0_06E 00000000  802fedc0  802fedc0  0000560c  2**0
                  CONTENTS
126 .inttab_tc0_06F 00000000  802fede0  802fede0  0000560c  2**0
                  CONTENTS
127 .inttab_tc0_070 00000000  802fee00  802fee00  0000560c  2**0
                  CONTENTS
128 .inttab_tc0_071 00000000  802fee20  802fee20  0000560c  2**0
                  CONTENTS
129 .inttab_tc0_072 00000000  802fee40  802fee40  0000560c  2**0
                  CONTENTS
130 .inttab_tc0_073 00000000  802fee60  802fee60  0000560c  2**0
                  CONTENTS
131 .inttab_tc0_074 00000000  802fee80  802fee80  0000560c  2**0
                  CONTENTS
132 .inttab_tc0_075 00000000  802feea0  802feea0  0000560c  2**0
                  CONTENTS
133 .inttab_tc0_076 00000000  802feec0  802feec0  0000560c  2**0
                  CONTENTS
134 .inttab_tc0_077 00000000  802feee0  802feee0  0000560c  2**0
                  CONTENTS
135 .inttab_tc0_078 00000000  802fef00  802fef00  0000560c  2**0
                  CONTENTS
136 .inttab_tc0_079 00000000  802fef20  802fef20  0000560c  2**0
                  CONTENTS
137 .inttab_tc0_07A 00000000  802fef40  802fef40  0000560c  2**0
                  CONTENTS
138 .inttab_tc0_07B 00000000  802fef60  802fef60  0000560c  2**0
                  CONTENTS
139 .inttab_tc0_07C 00000000  802fef80  802fef80  0000560c  2**0
                  CONTENTS
140 .inttab_tc0_07D 00000000  802fefa0  802fefa0  0000560c  2**0
                  CONTENTS
141 .inttab_tc0_07E 00000000  802fefc0  802fefc0  0000560c  2**0
                  CONTENTS
142 .inttab_tc0_07F 00000000  802fefe0  802fefe0  0000560c  2**0
                  CONTENTS
143 .inttab_tc0_080 00000000  802ff000  802ff000  0000560c  2**0
                  CONTENTS
144 .inttab_tc0_081 00000000  802ff020  802ff020  0000560c  2**0
                  CONTENTS
145 .inttab_tc0_082 00000000  802ff040  802ff040  0000560c  2**0
                  CONTENTS
146 .inttab_tc0_083 00000000  802ff060  802ff060  0000560c  2**0
                  CONTENTS
147 .inttab_tc0_084 00000000  802ff080  802ff080  0000560c  2**0
                  CONTENTS
148 .inttab_tc0_085 00000000  802ff0a0  802ff0a0  0000560c  2**0
                  CONTENTS
149 .inttab_tc0_086 00000000  802ff0c0  802ff0c0  0000560c  2**0
                  CONTENTS
150 .inttab_tc0_087 00000000  802ff0e0  802ff0e0  0000560c  2**0
                  CONTENTS
151 .inttab_tc0_088 00000000  802ff100  802ff100  0000560c  2**0
                  CONTENTS
152 .inttab_tc0_089 00000000  802ff120  802ff120  0000560c  2**0
                  CONTENTS
153 .inttab_tc0_08A 00000000  802ff140  802ff140  0000560c  2**0
                  CONTENTS
154 .inttab_tc0_08B 00000000  802ff160  802ff160  0000560c  2**0
                  CONTENTS
155 .inttab_tc0_08C 00000000  802ff180  802ff180  0000560c  2**0
                  CONTENTS
156 .inttab_tc0_08D 00000000  802ff1a0  802ff1a0  0000560c  2**0
                  CONTENTS
157 .inttab_tc0_08E 00000000  802ff1c0  802ff1c0  0000560c  2**0
                  CONTENTS
158 .inttab_tc0_08F 00000000  802ff1e0  802ff1e0  0000560c  2**0
                  CONTENTS
159 .inttab_tc0_090 00000000  802ff200  802ff200  0000560c  2**0
                  CONTENTS
160 .inttab_tc0_091 00000000  802ff220  802ff220  0000560c  2**0
                  CONTENTS
161 .inttab_tc0_092 00000000  802ff240  802ff240  0000560c  2**0
                  CONTENTS
162 .inttab_tc0_093 00000000  802ff260  802ff260  0000560c  2**0
                  CONTENTS
163 .inttab_tc0_094 00000000  802ff280  802ff280  0000560c  2**0
                  CONTENTS
164 .inttab_tc0_095 00000000  802ff2a0  802ff2a0  0000560c  2**0
                  CONTENTS
165 .inttab_tc0_096 00000000  802ff2c0  802ff2c0  0000560c  2**0
                  CONTENTS
166 .inttab_tc0_097 00000000  802ff2e0  802ff2e0  0000560c  2**0
                  CONTENTS
167 .inttab_tc0_098 00000000  802ff300  802ff300  0000560c  2**0
                  CONTENTS
168 .inttab_tc0_099 00000000  802ff320  802ff320  0000560c  2**0
                  CONTENTS
169 .inttab_tc0_09A 00000000  802ff340  802ff340  0000560c  2**0
                  CONTENTS
170 .inttab_tc0_09B 00000000  802ff360  802ff360  0000560c  2**0
                  CONTENTS
171 .inttab_tc0_09C 00000000  802ff380  802ff380  0000560c  2**0
                  CONTENTS
172 .inttab_tc0_09D 00000000  802ff3a0  802ff3a0  0000560c  2**0
                  CONTENTS
173 .inttab_tc0_09E 00000000  802ff3c0  802ff3c0  0000560c  2**0
                  CONTENTS
174 .inttab_tc0_09F 00000000  802ff3e0  802ff3e0  0000560c  2**0
                  CONTENTS
175 .inttab_tc0_0A0 00000000  802ff400  802ff400  0000560c  2**0
                  CONTENTS
176 .inttab_tc0_0A1 00000000  802ff420  802ff420  0000560c  2**0
                  CONTENTS
177 .inttab_tc0_0A2 00000000  802ff440  802ff440  0000560c  2**0
                  CONTENTS
178 .inttab_tc0_0A3 00000000  802ff460  802ff460  0000560c  2**0
                  CONTENTS
179 .inttab_tc0_0A4 00000000  802ff480  802ff480  0000560c  2**0
                  CONTENTS
180 .inttab_tc0_0A5 00000000  802ff4a0  802ff4a0  0000560c  2**0
                  CONTENTS
181 .inttab_tc0_0A6 00000000  802ff4c0  802ff4c0  0000560c  2**0
                  CONTENTS
182 .inttab_tc0_0A7 00000000  802ff4e0  802ff4e0  0000560c  2**0
                  CONTENTS
183 .inttab_tc0_0A8 00000000  802ff500  802ff500  0000560c  2**0
                  CONTENTS
184 .inttab_tc0_0A9 00000000  802ff520  802ff520  0000560c  2**0
                  CONTENTS
185 .inttab_tc0_0AA 00000000  802ff540  802ff540  0000560c  2**0
                  CONTENTS
186 .inttab_tc0_0AB 00000000  802ff560  802ff560  0000560c  2**0
                  CONTENTS
187 .inttab_tc0_0AC 00000000  802ff580  802ff580  0000560c  2**0
                  CONTENTS
188 .inttab_tc0_0AD 00000000  802ff5a0  802ff5a0  0000560c  2**0
                  CONTENTS
189 .inttab_tc0_0AE 00000000  802ff5c0  802ff5c0  0000560c  2**0
                  CONTENTS
190 .inttab_tc0_0AF 00000000  802ff5e0  802ff5e0  0000560c  2**0
                  CONTENTS
191 .inttab_tc0_0B0 00000000  802ff600  802ff600  0000560c  2**0
                  CONTENTS
192 .inttab_tc0_0B1 00000000  802ff620  802ff620  0000560c  2**0
                  CONTENTS
193 .inttab_tc0_0B2 00000000  802ff640  802ff640  0000560c  2**0
                  CONTENTS
194 .inttab_tc0_0B3 00000000  802ff660  802ff660  0000560c  2**0
                  CONTENTS
195 .inttab_tc0_0B4 00000000  802ff680  802ff680  0000560c  2**0
                  CONTENTS
196 .inttab_tc0_0B5 00000000  802ff6a0  802ff6a0  0000560c  2**0
                  CONTENTS
197 .inttab_tc0_0B6 00000000  802ff6c0  802ff6c0  0000560c  2**0
                  CONTENTS
198 .inttab_tc0_0B7 00000000  802ff6e0  802ff6e0  0000560c  2**0
                  CONTENTS
199 .inttab_tc0_0B8 00000000  802ff700  802ff700  0000560c  2**0
                  CONTENTS
200 .inttab_tc0_0B9 00000000  802ff720  802ff720  0000560c  2**0
                  CONTENTS
201 .inttab_tc0_0BA 00000000  802ff740  802ff740  0000560c  2**0
                  CONTENTS
202 .inttab_tc0_0BB 00000000  802ff760  802ff760  0000560c  2**0
                  CONTENTS
203 .inttab_tc0_0BC 00000000  802ff780  802ff780  0000560c  2**0
                  CONTENTS
204 .inttab_tc0_0BD 00000000  802ff7a0  802ff7a0  0000560c  2**0
                  CONTENTS
205 .inttab_tc0_0BE 00000000  802ff7c0  802ff7c0  0000560c  2**0
                  CONTENTS
206 .inttab_tc0_0BF 00000000  802ff7e0  802ff7e0  0000560c  2**0
                  CONTENTS
207 .inttab_tc0_0C0 00000000  802ff800  802ff800  0000560c  2**0
                  CONTENTS
208 .inttab_tc0_0C1 00000000  802ff820  802ff820  0000560c  2**0
                  CONTENTS
209 .inttab_tc0_0C2 00000000  802ff840  802ff840  0000560c  2**0
                  CONTENTS
210 .inttab_tc0_0C3 00000000  802ff860  802ff860  0000560c  2**0
                  CONTENTS
211 .inttab_tc0_0C4 00000000  802ff880  802ff880  0000560c  2**0
                  CONTENTS
212 .inttab_tc0_0C5 00000000  802ff8a0  802ff8a0  0000560c  2**0
                  CONTENTS
213 .inttab_tc0_0C6 00000000  802ff8c0  802ff8c0  0000560c  2**0
                  CONTENTS
214 .inttab_tc0_0C7 00000000  802ff8e0  802ff8e0  0000560c  2**0
                  CONTENTS
215 .inttab_tc0_0C8 00000000  802ff900  802ff900  0000560c  2**0
                  CONTENTS
216 .inttab_tc0_0C9 00000000  802ff920  802ff920  0000560c  2**0
                  CONTENTS
217 .inttab_tc0_0CA 00000000  802ff940  802ff940  0000560c  2**0
                  CONTENTS
218 .inttab_tc0_0CB 00000000  802ff960  802ff960  0000560c  2**0
                  CONTENTS
219 .inttab_tc0_0CC 00000000  802ff980  802ff980  0000560c  2**0
                  CONTENTS
220 .inttab_tc0_0CD 00000000  802ff9a0  802ff9a0  0000560c  2**0
                  CONTENTS
221 .inttab_tc0_0CE 00000000  802ff9c0  802ff9c0  0000560c  2**0
                  CONTENTS
222 .inttab_tc0_0CF 00000000  802ff9e0  802ff9e0  0000560c  2**0
                  CONTENTS
223 .inttab_tc0_0D0 00000000  802ffa00  802ffa00  0000560c  2**0
                  CONTENTS
224 .inttab_tc0_0D1 00000000  802ffa20  802ffa20  0000560c  2**0
                  CONTENTS
225 .inttab_tc0_0D2 00000000  802ffa40  802ffa40  0000560c  2**0
                  CONTENTS
226 .inttab_tc0_0D3 00000000  802ffa60  802ffa60  0000560c  2**0
                  CONTENTS
227 .inttab_tc0_0D4 00000000  802ffa80  802ffa80  0000560c  2**0
                  CONTENTS
228 .inttab_tc0_0D5 00000000  802ffaa0  802ffaa0  0000560c  2**0
                  CONTENTS
229 .inttab_tc0_0D6 00000000  802ffac0  802ffac0  0000560c  2**0
                  CONTENTS
230 .inttab_tc0_0D7 00000000  802ffae0  802ffae0  0000560c  2**0
                  CONTENTS
231 .inttab_tc0_0D8 00000000  802ffb00  802ffb00  0000560c  2**0
                  CONTENTS
232 .inttab_tc0_0D9 00000000  802ffb20  802ffb20  0000560c  2**0
                  CONTENTS
233 .inttab_tc0_0DA 00000000  802ffb40  802ffb40  0000560c  2**0
                  CONTENTS
234 .inttab_tc0_0DB 00000000  802ffb60  802ffb60  0000560c  2**0
                  CONTENTS
235 .inttab_tc0_0DC 00000000  802ffb80  802ffb80  0000560c  2**0
                  CONTENTS
236 .inttab_tc0_0DD 00000000  802ffba0  802ffba0  0000560c  2**0
                  CONTENTS
237 .inttab_tc0_0DE 00000000  802ffbc0  802ffbc0  0000560c  2**0
                  CONTENTS
238 .inttab_tc0_0DF 00000000  802ffbe0  802ffbe0  0000560c  2**0
                  CONTENTS
239 .inttab_tc0_0E0 00000000  802ffc00  802ffc00  0000560c  2**0
                  CONTENTS
240 .inttab_tc0_0E1 00000000  802ffc20  802ffc20  0000560c  2**0
                  CONTENTS
241 .inttab_tc0_0E2 00000000  802ffc40  802ffc40  0000560c  2**0
                  CONTENTS
242 .inttab_tc0_0E3 00000000  802ffc60  802ffc60  0000560c  2**0
                  CONTENTS
243 .inttab_tc0_0E4 00000000  802ffc80  802ffc80  0000560c  2**0
                  CONTENTS
244 .inttab_tc0_0E5 00000000  802ffca0  802ffca0  0000560c  2**0
                  CONTENTS
245 .inttab_tc0_0E6 00000000  802ffcc0  802ffcc0  0000560c  2**0
                  CONTENTS
246 .inttab_tc0_0E7 00000000  802ffce0  802ffce0  0000560c  2**0
                  CONTENTS
247 .inttab_tc0_0E8 00000000  802ffd00  802ffd00  0000560c  2**0
                  CONTENTS
248 .inttab_tc0_0E9 00000000  802ffd20  802ffd20  0000560c  2**0
                  CONTENTS
249 .inttab_tc0_0EA 00000000  802ffd40  802ffd40  0000560c  2**0
                  CONTENTS
250 .inttab_tc0_0EB 00000000  802ffd60  802ffd60  0000560c  2**0
                  CONTENTS
251 .inttab_tc0_0EC 00000000  802ffd80  802ffd80  0000560c  2**0
                  CONTENTS
252 .inttab_tc0_0ED 00000000  802ffda0  802ffda0  0000560c  2**0
                  CONTENTS
253 .inttab_tc0_0EE 00000000  802ffdc0  802ffdc0  0000560c  2**0
                  CONTENTS
254 .inttab_tc0_0EF 00000000  802ffde0  802ffde0  0000560c  2**0
                  CONTENTS
255 .inttab_tc0_0F0 00000000  802ffe00  802ffe00  0000560c  2**0
                  CONTENTS
256 .inttab_tc0_0F1 00000000  802ffe20  802ffe20  0000560c  2**0
                  CONTENTS
257 .inttab_tc0_0F2 00000000  802ffe40  802ffe40  0000560c  2**0
                  CONTENTS
258 .inttab_tc0_0F3 00000000  802ffe60  802ffe60  0000560c  2**0
                  CONTENTS
259 .inttab_tc0_0F4 00000000  802ffe80  802ffe80  0000560c  2**0
                  CONTENTS
260 .inttab_tc0_0F5 00000000  802ffea0  802ffea0  0000560c  2**0
                  CONTENTS
261 .inttab_tc0_0F6 00000000  802ffec0  802ffec0  0000560c  2**0
                  CONTENTS
262 .inttab_tc0_0F7 00000000  802ffee0  802ffee0  0000560c  2**0
                  CONTENTS
263 .inttab_tc0_0F8 00000000  802fff00  802fff00  0000560c  2**0
                  CONTENTS
264 .inttab_tc0_0F9 00000000  802fff20  802fff20  0000560c  2**0
                  CONTENTS
265 .inttab_tc0_0FA 00000000  802fff40  802fff40  0000560c  2**0
                  CONTENTS
266 .inttab_tc0_0FB 00000000  802fff60  802fff60  0000560c  2**0
                  CONTENTS
267 .inttab_tc0_0FC 00000000  802fff80  802fff80  0000560c  2**0
                  CONTENTS
268 .inttab_tc0_0FD 00000000  802fffa0  802fffa0  0000560c  2**0
                  CONTENTS
269 .inttab_tc0_0FE 00000000  802fffc0  802fffc0  0000560c  2**0
                  CONTENTS
270 .inttab_tc0_0FF 00000000  802fffe0  802fffe0  0000560c  2**0
                  CONTENTS
271 .inttab_tc1_000 00000000  805fc000  805fc000  0000560c  2**0
                  CONTENTS
272 .inttab_tc1_001 00000000  805fc020  805fc020  0000560c  2**0
                  CONTENTS
273 .inttab_tc1_002 00000000  805fc040  805fc040  0000560c  2**0
                  CONTENTS
274 .inttab_tc1_003 00000000  805fc060  805fc060  0000560c  2**0
                  CONTENTS
275 .inttab_tc1_004 00000000  805fc080  805fc080  0000560c  2**0
                  CONTENTS
276 .inttab_tc1_005 00000000  805fc0a0  805fc0a0  0000560c  2**0
                  CONTENTS
277 .inttab_tc1_006 00000000  805fc0c0  805fc0c0  0000560c  2**0
                  CONTENTS
278 .inttab_tc1_007 00000000  805fc0e0  805fc0e0  0000560c  2**0
                  CONTENTS
279 .inttab_tc1_008 00000000  805fc100  805fc100  0000560c  2**0
                  CONTENTS
280 .inttab_tc1_009 00000000  805fc120  805fc120  0000560c  2**0
                  CONTENTS
281 .inttab_tc1_00A 00000000  805fc140  805fc140  0000560c  2**0
                  CONTENTS
282 .inttab_tc1_00B 00000000  805fc160  805fc160  0000560c  2**0
                  CONTENTS
283 .inttab_tc1_00C 00000000  805fc180  805fc180  0000560c  2**0
                  CONTENTS
284 .inttab_tc1_00D 00000000  805fc1a0  805fc1a0  0000560c  2**0
                  CONTENTS
285 .inttab_tc1_00E 00000000  805fc1c0  805fc1c0  0000560c  2**0
                  CONTENTS
286 .inttab_tc1_00F 00000000  805fc1e0  805fc1e0  0000560c  2**0
                  CONTENTS
287 .inttab_tc1_010 00000000  805fc200  805fc200  0000560c  2**0
                  CONTENTS
288 .inttab_tc1_011 00000000  805fc220  805fc220  0000560c  2**0
                  CONTENTS
289 .inttab_tc1_012 00000000  805fc240  805fc240  0000560c  2**0
                  CONTENTS
290 .inttab_tc1_013 00000000  805fc260  805fc260  0000560c  2**0
                  CONTENTS
291 .inttab_tc1_014 00000000  805fc280  805fc280  0000560c  2**0
                  CONTENTS
292 .inttab_tc1_015 00000000  805fc2a0  805fc2a0  0000560c  2**0
                  CONTENTS
293 .inttab_tc1_016 00000000  805fc2c0  805fc2c0  0000560c  2**0
                  CONTENTS
294 .inttab_tc1_017 00000000  805fc2e0  805fc2e0  0000560c  2**0
                  CONTENTS
295 .inttab_tc1_018 00000000  805fc300  805fc300  0000560c  2**0
                  CONTENTS
296 .inttab_tc1_019 00000000  805fc320  805fc320  0000560c  2**0
                  CONTENTS
297 .inttab_tc1_01A 00000000  805fc340  805fc340  0000560c  2**0
                  CONTENTS
298 .inttab_tc1_01B 00000000  805fc360  805fc360  0000560c  2**0
                  CONTENTS
299 .inttab_tc1_01C 00000000  805fc380  805fc380  0000560c  2**0
                  CONTENTS
300 .inttab_tc1_01D 00000000  805fc3a0  805fc3a0  0000560c  2**0
                  CONTENTS
301 .inttab_tc1_01E 00000000  805fc3c0  805fc3c0  0000560c  2**0
                  CONTENTS
302 .inttab_tc1_01F 00000000  805fc3e0  805fc3e0  0000560c  2**0
                  CONTENTS
303 .inttab_tc1_020 00000000  805fc400  805fc400  0000560c  2**0
                  CONTENTS
304 .inttab_tc1_021 00000000  805fc420  805fc420  0000560c  2**0
                  CONTENTS
305 .inttab_tc1_022 00000000  805fc440  805fc440  0000560c  2**0
                  CONTENTS
306 .inttab_tc1_023 00000000  805fc460  805fc460  0000560c  2**0
                  CONTENTS
307 .inttab_tc1_024 00000000  805fc480  805fc480  0000560c  2**0
                  CONTENTS
308 .inttab_tc1_025 00000000  805fc4a0  805fc4a0  0000560c  2**0
                  CONTENTS
309 .inttab_tc1_026 00000000  805fc4c0  805fc4c0  0000560c  2**0
                  CONTENTS
310 .inttab_tc1_027 00000000  805fc4e0  805fc4e0  0000560c  2**0
                  CONTENTS
311 .inttab_tc1_028 00000000  805fc500  805fc500  0000560c  2**0
                  CONTENTS
312 .inttab_tc1_029 00000000  805fc520  805fc520  0000560c  2**0
                  CONTENTS
313 .inttab_tc1_02A 00000000  805fc540  805fc540  0000560c  2**0
                  CONTENTS
314 .inttab_tc1_02B 00000000  805fc560  805fc560  0000560c  2**0
                  CONTENTS
315 .inttab_tc1_02C 00000000  805fc580  805fc580  0000560c  2**0
                  CONTENTS
316 .inttab_tc1_02D 00000000  805fc5a0  805fc5a0  0000560c  2**0
                  CONTENTS
317 .inttab_tc1_02E 00000000  805fc5c0  805fc5c0  0000560c  2**0
                  CONTENTS
318 .inttab_tc1_02F 00000000  805fc5e0  805fc5e0  0000560c  2**0
                  CONTENTS
319 .inttab_tc1_030 00000000  805fc600  805fc600  0000560c  2**0
                  CONTENTS
320 .inttab_tc1_031 00000000  805fc620  805fc620  0000560c  2**0
                  CONTENTS
321 .inttab_tc1_032 00000000  805fc640  805fc640  0000560c  2**0
                  CONTENTS
322 .inttab_tc1_033 00000000  805fc660  805fc660  0000560c  2**0
                  CONTENTS
323 .inttab_tc1_034 00000000  805fc680  805fc680  0000560c  2**0
                  CONTENTS
324 .inttab_tc1_035 00000000  805fc6a0  805fc6a0  0000560c  2**0
                  CONTENTS
325 .inttab_tc1_036 00000000  805fc6c0  805fc6c0  0000560c  2**0
                  CONTENTS
326 .inttab_tc1_037 00000000  805fc6e0  805fc6e0  0000560c  2**0
                  CONTENTS
327 .inttab_tc1_038 00000000  805fc700  805fc700  0000560c  2**0
                  CONTENTS
328 .inttab_tc1_039 00000000  805fc720  805fc720  0000560c  2**0
                  CONTENTS
329 .inttab_tc1_03A 00000000  805fc740  805fc740  0000560c  2**0
                  CONTENTS
330 .inttab_tc1_03B 00000000  805fc760  805fc760  0000560c  2**0
                  CONTENTS
331 .inttab_tc1_03C 00000000  805fc780  805fc780  0000560c  2**0
                  CONTENTS
332 .inttab_tc1_03D 00000000  805fc7a0  805fc7a0  0000560c  2**0
                  CONTENTS
333 .inttab_tc1_03E 00000000  805fc7c0  805fc7c0  0000560c  2**0
                  CONTENTS
334 .inttab_tc1_03F 00000000  805fc7e0  805fc7e0  0000560c  2**0
                  CONTENTS
335 .inttab_tc1_040 00000000  805fc800  805fc800  0000560c  2**0
                  CONTENTS
336 .inttab_tc1_041 00000000  805fc820  805fc820  0000560c  2**0
                  CONTENTS
337 .inttab_tc1_042 00000000  805fc840  805fc840  0000560c  2**0
                  CONTENTS
338 .inttab_tc1_043 00000000  805fc860  805fc860  0000560c  2**0
                  CONTENTS
339 .inttab_tc1_044 00000000  805fc880  805fc880  0000560c  2**0
                  CONTENTS
340 .inttab_tc1_045 00000000  805fc8a0  805fc8a0  0000560c  2**0
                  CONTENTS
341 .inttab_tc1_046 00000000  805fc8c0  805fc8c0  0000560c  2**0
                  CONTENTS
342 .inttab_tc1_047 00000000  805fc8e0  805fc8e0  0000560c  2**0
                  CONTENTS
343 .inttab_tc1_048 00000000  805fc900  805fc900  0000560c  2**0
                  CONTENTS
344 .inttab_tc1_049 00000000  805fc920  805fc920  0000560c  2**0
                  CONTENTS
345 .inttab_tc1_04A 00000000  805fc940  805fc940  0000560c  2**0
                  CONTENTS
346 .inttab_tc1_04B 00000000  805fc960  805fc960  0000560c  2**0
                  CONTENTS
347 .inttab_tc1_04C 00000000  805fc980  805fc980  0000560c  2**0
                  CONTENTS
348 .inttab_tc1_04D 00000000  805fc9a0  805fc9a0  0000560c  2**0
                  CONTENTS
349 .inttab_tc1_04E 00000000  805fc9c0  805fc9c0  0000560c  2**0
                  CONTENTS
350 .inttab_tc1_04F 00000000  805fc9e0  805fc9e0  0000560c  2**0
                  CONTENTS
351 .inttab_tc1_050 00000000  805fca00  805fca00  0000560c  2**0
                  CONTENTS
352 .inttab_tc1_051 00000000  805fca20  805fca20  0000560c  2**0
                  CONTENTS
353 .inttab_tc1_052 00000000  805fca40  805fca40  0000560c  2**0
                  CONTENTS
354 .inttab_tc1_053 00000000  805fca60  805fca60  0000560c  2**0
                  CONTENTS
355 .inttab_tc1_054 00000000  805fca80  805fca80  0000560c  2**0
                  CONTENTS
356 .inttab_tc1_055 00000000  805fcaa0  805fcaa0  0000560c  2**0
                  CONTENTS
357 .inttab_tc1_056 00000000  805fcac0  805fcac0  0000560c  2**0
                  CONTENTS
358 .inttab_tc1_057 00000000  805fcae0  805fcae0  0000560c  2**0
                  CONTENTS
359 .inttab_tc1_058 00000000  805fcb00  805fcb00  0000560c  2**0
                  CONTENTS
360 .inttab_tc1_059 00000000  805fcb20  805fcb20  0000560c  2**0
                  CONTENTS
361 .inttab_tc1_05A 00000000  805fcb40  805fcb40  0000560c  2**0
                  CONTENTS
362 .inttab_tc1_05B 00000000  805fcb60  805fcb60  0000560c  2**0
                  CONTENTS
363 .inttab_tc1_05C 00000000  805fcb80  805fcb80  0000560c  2**0
                  CONTENTS
364 .inttab_tc1_05D 00000000  805fcba0  805fcba0  0000560c  2**0
                  CONTENTS
365 .inttab_tc1_05E 00000000  805fcbc0  805fcbc0  0000560c  2**0
                  CONTENTS
366 .inttab_tc1_05F 00000000  805fcbe0  805fcbe0  0000560c  2**0
                  CONTENTS
367 .inttab_tc1_060 00000000  805fcc00  805fcc00  0000560c  2**0
                  CONTENTS
368 .inttab_tc1_061 00000000  805fcc20  805fcc20  0000560c  2**0
                  CONTENTS
369 .inttab_tc1_062 00000000  805fcc40  805fcc40  0000560c  2**0
                  CONTENTS
370 .inttab_tc1_063 00000000  805fcc60  805fcc60  0000560c  2**0
                  CONTENTS
371 .inttab_tc1_064 00000000  805fcc80  805fcc80  0000560c  2**0
                  CONTENTS
372 .inttab_tc1_065 00000000  805fcca0  805fcca0  0000560c  2**0
                  CONTENTS
373 .inttab_tc1_066 00000000  805fccc0  805fccc0  0000560c  2**0
                  CONTENTS
374 .inttab_tc1_067 00000000  805fcce0  805fcce0  0000560c  2**0
                  CONTENTS
375 .inttab_tc1_068 00000000  805fcd00  805fcd00  0000560c  2**0
                  CONTENTS
376 .inttab_tc1_069 00000000  805fcd20  805fcd20  0000560c  2**0
                  CONTENTS
377 .inttab_tc1_06A 00000000  805fcd40  805fcd40  0000560c  2**0
                  CONTENTS
378 .inttab_tc1_06B 00000000  805fcd60  805fcd60  0000560c  2**0
                  CONTENTS
379 .inttab_tc1_06C 00000000  805fcd80  805fcd80  0000560c  2**0
                  CONTENTS
380 .inttab_tc1_06D 00000000  805fcda0  805fcda0  0000560c  2**0
                  CONTENTS
381 .inttab_tc1_06E 00000000  805fcdc0  805fcdc0  0000560c  2**0
                  CONTENTS
382 .inttab_tc1_06F 00000000  805fcde0  805fcde0  0000560c  2**0
                  CONTENTS
383 .inttab_tc1_070 00000000  805fce00  805fce00  0000560c  2**0
                  CONTENTS
384 .inttab_tc1_071 00000000  805fce20  805fce20  0000560c  2**0
                  CONTENTS
385 .inttab_tc1_072 00000000  805fce40  805fce40  0000560c  2**0
                  CONTENTS
386 .inttab_tc1_073 00000000  805fce60  805fce60  0000560c  2**0
                  CONTENTS
387 .inttab_tc1_074 00000000  805fce80  805fce80  0000560c  2**0
                  CONTENTS
388 .inttab_tc1_075 00000000  805fcea0  805fcea0  0000560c  2**0
                  CONTENTS
389 .inttab_tc1_076 00000000  805fcec0  805fcec0  0000560c  2**0
                  CONTENTS
390 .inttab_tc1_077 00000000  805fcee0  805fcee0  0000560c  2**0
                  CONTENTS
391 .inttab_tc1_078 00000000  805fcf00  805fcf00  0000560c  2**0
                  CONTENTS
392 .inttab_tc1_079 00000000  805fcf20  805fcf20  0000560c  2**0
                  CONTENTS
393 .inttab_tc1_07A 00000000  805fcf40  805fcf40  0000560c  2**0
                  CONTENTS
394 .inttab_tc1_07B 00000000  805fcf60  805fcf60  0000560c  2**0
                  CONTENTS
395 .inttab_tc1_07C 00000000  805fcf80  805fcf80  0000560c  2**0
                  CONTENTS
396 .inttab_tc1_07D 00000000  805fcfa0  805fcfa0  0000560c  2**0
                  CONTENTS
397 .inttab_tc1_07E 00000000  805fcfc0  805fcfc0  0000560c  2**0
                  CONTENTS
398 .inttab_tc1_07F 00000000  805fcfe0  805fcfe0  0000560c  2**0
                  CONTENTS
399 .inttab_tc1_080 00000000  805fd000  805fd000  0000560c  2**0
                  CONTENTS
400 .inttab_tc1_081 00000000  805fd020  805fd020  0000560c  2**0
                  CONTENTS
401 .inttab_tc1_082 00000000  805fd040  805fd040  0000560c  2**0
                  CONTENTS
402 .inttab_tc1_083 00000000  805fd060  805fd060  0000560c  2**0
                  CONTENTS
403 .inttab_tc1_084 00000000  805fd080  805fd080  0000560c  2**0
                  CONTENTS
404 .inttab_tc1_085 00000000  805fd0a0  805fd0a0  0000560c  2**0
                  CONTENTS
405 .inttab_tc1_086 00000000  805fd0c0  805fd0c0  0000560c  2**0
                  CONTENTS
406 .inttab_tc1_087 00000000  805fd0e0  805fd0e0  0000560c  2**0
                  CONTENTS
407 .inttab_tc1_088 00000000  805fd100  805fd100  0000560c  2**0
                  CONTENTS
408 .inttab_tc1_089 00000000  805fd120  805fd120  0000560c  2**0
                  CONTENTS
409 .inttab_tc1_08A 00000000  805fd140  805fd140  0000560c  2**0
                  CONTENTS
410 .inttab_tc1_08B 00000000  805fd160  805fd160  0000560c  2**0
                  CONTENTS
411 .inttab_tc1_08C 00000000  805fd180  805fd180  0000560c  2**0
                  CONTENTS
412 .inttab_tc1_08D 00000000  805fd1a0  805fd1a0  0000560c  2**0
                  CONTENTS
413 .inttab_tc1_08E 00000000  805fd1c0  805fd1c0  0000560c  2**0
                  CONTENTS
414 .inttab_tc1_08F 00000000  805fd1e0  805fd1e0  0000560c  2**0
                  CONTENTS
415 .inttab_tc1_090 00000000  805fd200  805fd200  0000560c  2**0
                  CONTENTS
416 .inttab_tc1_091 00000000  805fd220  805fd220  0000560c  2**0
                  CONTENTS
417 .inttab_tc1_092 00000000  805fd240  805fd240  0000560c  2**0
                  CONTENTS
418 .inttab_tc1_093 00000000  805fd260  805fd260  0000560c  2**0
                  CONTENTS
419 .inttab_tc1_094 00000000  805fd280  805fd280  0000560c  2**0
                  CONTENTS
420 .inttab_tc1_095 00000000  805fd2a0  805fd2a0  0000560c  2**0
                  CONTENTS
421 .inttab_tc1_096 00000000  805fd2c0  805fd2c0  0000560c  2**0
                  CONTENTS
422 .inttab_tc1_097 00000000  805fd2e0  805fd2e0  0000560c  2**0
                  CONTENTS
423 .inttab_tc1_098 00000000  805fd300  805fd300  0000560c  2**0
                  CONTENTS
424 .inttab_tc1_099 00000000  805fd320  805fd320  0000560c  2**0
                  CONTENTS
425 .inttab_tc1_09A 00000000  805fd340  805fd340  0000560c  2**0
                  CONTENTS
426 .inttab_tc1_09B 00000000  805fd360  805fd360  0000560c  2**0
                  CONTENTS
427 .inttab_tc1_09C 00000000  805fd380  805fd380  0000560c  2**0
                  CONTENTS
428 .inttab_tc1_09D 00000000  805fd3a0  805fd3a0  0000560c  2**0
                  CONTENTS
429 .inttab_tc1_09E 00000000  805fd3c0  805fd3c0  0000560c  2**0
                  CONTENTS
430 .inttab_tc1_09F 00000000  805fd3e0  805fd3e0  0000560c  2**0
                  CONTENTS
431 .inttab_tc1_0A0 00000000  805fd400  805fd400  0000560c  2**0
                  CONTENTS
432 .inttab_tc1_0A1 00000000  805fd420  805fd420  0000560c  2**0
                  CONTENTS
433 .inttab_tc1_0A2 00000000  805fd440  805fd440  0000560c  2**0
                  CONTENTS
434 .inttab_tc1_0A3 00000000  805fd460  805fd460  0000560c  2**0
                  CONTENTS
435 .inttab_tc1_0A4 00000000  805fd480  805fd480  0000560c  2**0
                  CONTENTS
436 .inttab_tc1_0A5 00000000  805fd4a0  805fd4a0  0000560c  2**0
                  CONTENTS
437 .inttab_tc1_0A6 00000000  805fd4c0  805fd4c0  0000560c  2**0
                  CONTENTS
438 .inttab_tc1_0A7 00000000  805fd4e0  805fd4e0  0000560c  2**0
                  CONTENTS
439 .inttab_tc1_0A8 00000000  805fd500  805fd500  0000560c  2**0
                  CONTENTS
440 .inttab_tc1_0A9 00000000  805fd520  805fd520  0000560c  2**0
                  CONTENTS
441 .inttab_tc1_0AA 00000000  805fd540  805fd540  0000560c  2**0
                  CONTENTS
442 .inttab_tc1_0AB 00000000  805fd560  805fd560  0000560c  2**0
                  CONTENTS
443 .inttab_tc1_0AC 00000000  805fd580  805fd580  0000560c  2**0
                  CONTENTS
444 .inttab_tc1_0AD 00000000  805fd5a0  805fd5a0  0000560c  2**0
                  CONTENTS
445 .inttab_tc1_0AE 00000000  805fd5c0  805fd5c0  0000560c  2**0
                  CONTENTS
446 .inttab_tc1_0AF 00000000  805fd5e0  805fd5e0  0000560c  2**0
                  CONTENTS
447 .inttab_tc1_0B0 00000000  805fd600  805fd600  0000560c  2**0
                  CONTENTS
448 .inttab_tc1_0B1 00000000  805fd620  805fd620  0000560c  2**0
                  CONTENTS
449 .inttab_tc1_0B2 00000000  805fd640  805fd640  0000560c  2**0
                  CONTENTS
450 .inttab_tc1_0B3 00000000  805fd660  805fd660  0000560c  2**0
                  CONTENTS
451 .inttab_tc1_0B4 00000000  805fd680  805fd680  0000560c  2**0
                  CONTENTS
452 .inttab_tc1_0B5 00000000  805fd6a0  805fd6a0  0000560c  2**0
                  CONTENTS
453 .inttab_tc1_0B6 00000000  805fd6c0  805fd6c0  0000560c  2**0
                  CONTENTS
454 .inttab_tc1_0B7 00000000  805fd6e0  805fd6e0  0000560c  2**0
                  CONTENTS
455 .inttab_tc1_0B8 00000000  805fd700  805fd700  0000560c  2**0
                  CONTENTS
456 .inttab_tc1_0B9 00000000  805fd720  805fd720  0000560c  2**0
                  CONTENTS
457 .inttab_tc1_0BA 00000000  805fd740  805fd740  0000560c  2**0
                  CONTENTS
458 .inttab_tc1_0BB 00000000  805fd760  805fd760  0000560c  2**0
                  CONTENTS
459 .inttab_tc1_0BC 00000000  805fd780  805fd780  0000560c  2**0
                  CONTENTS
460 .inttab_tc1_0BD 00000000  805fd7a0  805fd7a0  0000560c  2**0
                  CONTENTS
461 .inttab_tc1_0BE 00000000  805fd7c0  805fd7c0  0000560c  2**0
                  CONTENTS
462 .inttab_tc1_0BF 00000000  805fd7e0  805fd7e0  0000560c  2**0
                  CONTENTS
463 .inttab_tc1_0C0 00000000  805fd800  805fd800  0000560c  2**0
                  CONTENTS
464 .inttab_tc1_0C1 00000000  805fd820  805fd820  0000560c  2**0
                  CONTENTS
465 .inttab_tc1_0C2 00000000  805fd840  805fd840  0000560c  2**0
                  CONTENTS
466 .inttab_tc1_0C3 00000000  805fd860  805fd860  0000560c  2**0
                  CONTENTS
467 .inttab_tc1_0C4 00000000  805fd880  805fd880  0000560c  2**0
                  CONTENTS
468 .inttab_tc1_0C5 00000000  805fd8a0  805fd8a0  0000560c  2**0
                  CONTENTS
469 .inttab_tc1_0C6 00000000  805fd8c0  805fd8c0  0000560c  2**0
                  CONTENTS
470 .inttab_tc1_0C7 00000000  805fd8e0  805fd8e0  0000560c  2**0
                  CONTENTS
471 .inttab_tc1_0C8 00000000  805fd900  805fd900  0000560c  2**0
                  CONTENTS
472 .inttab_tc1_0C9 00000000  805fd920  805fd920  0000560c  2**0
                  CONTENTS
473 .inttab_tc1_0CA 00000000  805fd940  805fd940  0000560c  2**0
                  CONTENTS
474 .inttab_tc1_0CB 00000000  805fd960  805fd960  0000560c  2**0
                  CONTENTS
475 .inttab_tc1_0CC 00000000  805fd980  805fd980  0000560c  2**0
                  CONTENTS
476 .inttab_tc1_0CD 00000000  805fd9a0  805fd9a0  0000560c  2**0
                  CONTENTS
477 .inttab_tc1_0CE 00000000  805fd9c0  805fd9c0  0000560c  2**0
                  CONTENTS
478 .inttab_tc1_0CF 00000000  805fd9e0  805fd9e0  0000560c  2**0
                  CONTENTS
479 .inttab_tc1_0D0 00000000  805fda00  805fda00  0000560c  2**0
                  CONTENTS
480 .inttab_tc1_0D1 00000000  805fda20  805fda20  0000560c  2**0
                  CONTENTS
481 .inttab_tc1_0D2 00000000  805fda40  805fda40  0000560c  2**0
                  CONTENTS
482 .inttab_tc1_0D3 00000000  805fda60  805fda60  0000560c  2**0
                  CONTENTS
483 .inttab_tc1_0D4 00000000  805fda80  805fda80  0000560c  2**0
                  CONTENTS
484 .inttab_tc1_0D5 00000000  805fdaa0  805fdaa0  0000560c  2**0
                  CONTENTS
485 .inttab_tc1_0D6 00000000  805fdac0  805fdac0  0000560c  2**0
                  CONTENTS
486 .inttab_tc1_0D7 00000000  805fdae0  805fdae0  0000560c  2**0
                  CONTENTS
487 .inttab_tc1_0D8 00000000  805fdb00  805fdb00  0000560c  2**0
                  CONTENTS
488 .inttab_tc1_0D9 00000000  805fdb20  805fdb20  0000560c  2**0
                  CONTENTS
489 .inttab_tc1_0DA 00000000  805fdb40  805fdb40  0000560c  2**0
                  CONTENTS
490 .inttab_tc1_0DB 00000000  805fdb60  805fdb60  0000560c  2**0
                  CONTENTS
491 .inttab_tc1_0DC 00000000  805fdb80  805fdb80  0000560c  2**0
                  CONTENTS
492 .inttab_tc1_0DD 00000000  805fdba0  805fdba0  0000560c  2**0
                  CONTENTS
493 .inttab_tc1_0DE 00000000  805fdbc0  805fdbc0  0000560c  2**0
                  CONTENTS
494 .inttab_tc1_0DF 00000000  805fdbe0  805fdbe0  0000560c  2**0
                  CONTENTS
495 .inttab_tc1_0E0 00000000  805fdc00  805fdc00  0000560c  2**0
                  CONTENTS
496 .inttab_tc1_0E1 00000000  805fdc20  805fdc20  0000560c  2**0
                  CONTENTS
497 .inttab_tc1_0E2 00000000  805fdc40  805fdc40  0000560c  2**0
                  CONTENTS
498 .inttab_tc1_0E3 00000000  805fdc60  805fdc60  0000560c  2**0
                  CONTENTS
499 .inttab_tc1_0E4 00000000  805fdc80  805fdc80  0000560c  2**0
                  CONTENTS
500 .inttab_tc1_0E5 00000000  805fdca0  805fdca0  0000560c  2**0
                  CONTENTS
501 .inttab_tc1_0E6 00000000  805fdcc0  805fdcc0  0000560c  2**0
                  CONTENTS
502 .inttab_tc1_0E7 00000000  805fdce0  805fdce0  0000560c  2**0
                  CONTENTS
503 .inttab_tc1_0E8 00000000  805fdd00  805fdd00  0000560c  2**0
                  CONTENTS
504 .inttab_tc1_0E9 00000000  805fdd20  805fdd20  0000560c  2**0
                  CONTENTS
505 .inttab_tc1_0EA 00000000  805fdd40  805fdd40  0000560c  2**0
                  CONTENTS
506 .inttab_tc1_0EB 00000000  805fdd60  805fdd60  0000560c  2**0
                  CONTENTS
507 .inttab_tc1_0EC 00000000  805fdd80  805fdd80  0000560c  2**0
                  CONTENTS
508 .inttab_tc1_0ED 00000000  805fdda0  805fdda0  0000560c  2**0
                  CONTENTS
509 .inttab_tc1_0EE 00000000  805fddc0  805fddc0  0000560c  2**0
                  CONTENTS
510 .inttab_tc1_0EF 00000000  805fdde0  805fdde0  0000560c  2**0
                  CONTENTS
511 .inttab_tc1_0F0 00000000  805fde00  805fde00  0000560c  2**0
                  CONTENTS
512 .inttab_tc1_0F1 00000000  805fde20  805fde20  0000560c  2**0
                  CONTENTS
513 .inttab_tc1_0F2 00000000  805fde40  805fde40  0000560c  2**0
                  CONTENTS
514 .inttab_tc1_0F3 00000000  805fde60  805fde60  0000560c  2**0
                  CONTENTS
515 .inttab_tc1_0F4 00000000  805fde80  805fde80  0000560c  2**0
                  CONTENTS
516 .inttab_tc1_0F5 00000000  805fdea0  805fdea0  0000560c  2**0
                  CONTENTS
517 .inttab_tc1_0F6 00000000  805fdec0  805fdec0  0000560c  2**0
                  CONTENTS
518 .inttab_tc1_0F7 00000000  805fdee0  805fdee0  0000560c  2**0
                  CONTENTS
519 .inttab_tc1_0F8 00000000  805fdf00  805fdf00  0000560c  2**0
                  CONTENTS
520 .inttab_tc1_0F9 00000000  805fdf20  805fdf20  0000560c  2**0
                  CONTENTS
521 .inttab_tc1_0FA 00000000  805fdf40  805fdf40  0000560c  2**0
                  CONTENTS
522 .inttab_tc1_0FB 00000000  805fdf60  805fdf60  0000560c  2**0
                  CONTENTS
523 .inttab_tc1_0FC 00000000  805fdf80  805fdf80  0000560c  2**0
                  CONTENTS
524 .inttab_tc1_0FD 00000000  805fdfa0  805fdfa0  0000560c  2**0
                  CONTENTS
525 .inttab_tc1_0FE 00000000  805fdfc0  805fdfc0  0000560c  2**0
                  CONTENTS
526 .inttab_tc1_0FF 00000000  805fdfe0  805fdfe0  0000560c  2**0
                  CONTENTS
527 .inttab_tc2_000 00000000  805fe000  805fe000  0000560c  2**0
                  CONTENTS
528 .inttab_tc2_001 00000000  805fe020  805fe020  0000560c  2**0
                  CONTENTS
529 .inttab_tc2_002 00000000  805fe040  805fe040  0000560c  2**0
                  CONTENTS
530 .inttab_tc2_003 00000000  805fe060  805fe060  0000560c  2**0
                  CONTENTS
531 .inttab_tc2_004 00000000  805fe080  805fe080  0000560c  2**0
                  CONTENTS
532 .inttab_tc2_005 00000000  805fe0a0  805fe0a0  0000560c  2**0
                  CONTENTS
533 .inttab_tc2_006 00000000  805fe0c0  805fe0c0  0000560c  2**0
                  CONTENTS
534 .inttab_tc2_007 00000000  805fe0e0  805fe0e0  0000560c  2**0
                  CONTENTS
535 .inttab_tc2_008 00000000  805fe100  805fe100  0000560c  2**0
                  CONTENTS
536 .inttab_tc2_009 00000000  805fe120  805fe120  0000560c  2**0
                  CONTENTS
537 .inttab_tc2_00A 00000000  805fe140  805fe140  0000560c  2**0
                  CONTENTS
538 .inttab_tc2_00B 00000000  805fe160  805fe160  0000560c  2**0
                  CONTENTS
539 .inttab_tc2_00C 00000000  805fe180  805fe180  0000560c  2**0
                  CONTENTS
540 .inttab_tc2_00D 00000000  805fe1a0  805fe1a0  0000560c  2**0
                  CONTENTS
541 .inttab_tc2_00E 00000000  805fe1c0  805fe1c0  0000560c  2**0
                  CONTENTS
542 .inttab_tc2_00F 00000000  805fe1e0  805fe1e0  0000560c  2**0
                  CONTENTS
543 .inttab_tc2_010 00000000  805fe200  805fe200  0000560c  2**0
                  CONTENTS
544 .inttab_tc2_011 00000000  805fe220  805fe220  0000560c  2**0
                  CONTENTS
545 .inttab_tc2_012 00000000  805fe240  805fe240  0000560c  2**0
                  CONTENTS
546 .inttab_tc2_013 00000000  805fe260  805fe260  0000560c  2**0
                  CONTENTS
547 .inttab_tc2_014 00000000  805fe280  805fe280  0000560c  2**0
                  CONTENTS
548 .inttab_tc2_015 00000000  805fe2a0  805fe2a0  0000560c  2**0
                  CONTENTS
549 .inttab_tc2_016 00000000  805fe2c0  805fe2c0  0000560c  2**0
                  CONTENTS
550 .inttab_tc2_017 00000000  805fe2e0  805fe2e0  0000560c  2**0
                  CONTENTS
551 .inttab_tc2_018 00000000  805fe300  805fe300  0000560c  2**0
                  CONTENTS
552 .inttab_tc2_019 00000000  805fe320  805fe320  0000560c  2**0
                  CONTENTS
553 .inttab_tc2_01A 00000000  805fe340  805fe340  0000560c  2**0
                  CONTENTS
554 .inttab_tc2_01B 00000000  805fe360  805fe360  0000560c  2**0
                  CONTENTS
555 .inttab_tc2_01C 00000000  805fe380  805fe380  0000560c  2**0
                  CONTENTS
556 .inttab_tc2_01D 00000000  805fe3a0  805fe3a0  0000560c  2**0
                  CONTENTS
557 .inttab_tc2_01E 00000000  805fe3c0  805fe3c0  0000560c  2**0
                  CONTENTS
558 .inttab_tc2_01F 00000000  805fe3e0  805fe3e0  0000560c  2**0
                  CONTENTS
559 .inttab_tc2_020 00000000  805fe400  805fe400  0000560c  2**0
                  CONTENTS
560 .inttab_tc2_021 00000000  805fe420  805fe420  0000560c  2**0
                  CONTENTS
561 .inttab_tc2_022 00000000  805fe440  805fe440  0000560c  2**0
                  CONTENTS
562 .inttab_tc2_023 00000000  805fe460  805fe460  0000560c  2**0
                  CONTENTS
563 .inttab_tc2_024 00000000  805fe480  805fe480  0000560c  2**0
                  CONTENTS
564 .inttab_tc2_025 00000000  805fe4a0  805fe4a0  0000560c  2**0
                  CONTENTS
565 .inttab_tc2_026 00000000  805fe4c0  805fe4c0  0000560c  2**0
                  CONTENTS
566 .inttab_tc2_027 00000000  805fe4e0  805fe4e0  0000560c  2**0
                  CONTENTS
567 .inttab_tc2_028 00000000  805fe500  805fe500  0000560c  2**0
                  CONTENTS
568 .inttab_tc2_029 00000000  805fe520  805fe520  0000560c  2**0
                  CONTENTS
569 .inttab_tc2_02A 00000000  805fe540  805fe540  0000560c  2**0
                  CONTENTS
570 .inttab_tc2_02B 00000000  805fe560  805fe560  0000560c  2**0
                  CONTENTS
571 .inttab_tc2_02C 00000000  805fe580  805fe580  0000560c  2**0
                  CONTENTS
572 .inttab_tc2_02D 00000000  805fe5a0  805fe5a0  0000560c  2**0
                  CONTENTS
573 .inttab_tc2_02E 00000000  805fe5c0  805fe5c0  0000560c  2**0
                  CONTENTS
574 .inttab_tc2_02F 00000000  805fe5e0  805fe5e0  0000560c  2**0
                  CONTENTS
575 .inttab_tc2_030 00000000  805fe600  805fe600  0000560c  2**0
                  CONTENTS
576 .inttab_tc2_031 00000000  805fe620  805fe620  0000560c  2**0
                  CONTENTS
577 .inttab_tc2_032 00000000  805fe640  805fe640  0000560c  2**0
                  CONTENTS
578 .inttab_tc2_033 00000000  805fe660  805fe660  0000560c  2**0
                  CONTENTS
579 .inttab_tc2_034 00000000  805fe680  805fe680  0000560c  2**0
                  CONTENTS
580 .inttab_tc2_035 00000000  805fe6a0  805fe6a0  0000560c  2**0
                  CONTENTS
581 .inttab_tc2_036 00000000  805fe6c0  805fe6c0  0000560c  2**0
                  CONTENTS
582 .inttab_tc2_037 00000000  805fe6e0  805fe6e0  0000560c  2**0
                  CONTENTS
583 .inttab_tc2_038 00000000  805fe700  805fe700  0000560c  2**0
                  CONTENTS
584 .inttab_tc2_039 00000000  805fe720  805fe720  0000560c  2**0
                  CONTENTS
585 .inttab_tc2_03A 00000000  805fe740  805fe740  0000560c  2**0
                  CONTENTS
586 .inttab_tc2_03B 00000000  805fe760  805fe760  0000560c  2**0
                  CONTENTS
587 .inttab_tc2_03C 00000000  805fe780  805fe780  0000560c  2**0
                  CONTENTS
588 .inttab_tc2_03D 00000000  805fe7a0  805fe7a0  0000560c  2**0
                  CONTENTS
589 .inttab_tc2_03E 00000000  805fe7c0  805fe7c0  0000560c  2**0
                  CONTENTS
590 .inttab_tc2_03F 00000000  805fe7e0  805fe7e0  0000560c  2**0
                  CONTENTS
591 .inttab_tc2_040 00000000  805fe800  805fe800  0000560c  2**0
                  CONTENTS
592 .inttab_tc2_041 00000000  805fe820  805fe820  0000560c  2**0
                  CONTENTS
593 .inttab_tc2_042 00000000  805fe840  805fe840  0000560c  2**0
                  CONTENTS
594 .inttab_tc2_043 00000000  805fe860  805fe860  0000560c  2**0
                  CONTENTS
595 .inttab_tc2_044 00000000  805fe880  805fe880  0000560c  2**0
                  CONTENTS
596 .inttab_tc2_045 00000000  805fe8a0  805fe8a0  0000560c  2**0
                  CONTENTS
597 .inttab_tc2_046 00000000  805fe8c0  805fe8c0  0000560c  2**0
                  CONTENTS
598 .inttab_tc2_047 00000000  805fe8e0  805fe8e0  0000560c  2**0
                  CONTENTS
599 .inttab_tc2_048 00000000  805fe900  805fe900  0000560c  2**0
                  CONTENTS
600 .inttab_tc2_049 00000000  805fe920  805fe920  0000560c  2**0
                  CONTENTS
601 .inttab_tc2_04A 00000000  805fe940  805fe940  0000560c  2**0
                  CONTENTS
602 .inttab_tc2_04B 00000000  805fe960  805fe960  0000560c  2**0
                  CONTENTS
603 .inttab_tc2_04C 00000000  805fe980  805fe980  0000560c  2**0
                  CONTENTS
604 .inttab_tc2_04D 00000000  805fe9a0  805fe9a0  0000560c  2**0
                  CONTENTS
605 .inttab_tc2_04E 00000000  805fe9c0  805fe9c0  0000560c  2**0
                  CONTENTS
606 .inttab_tc2_04F 00000000  805fe9e0  805fe9e0  0000560c  2**0
                  CONTENTS
607 .inttab_tc2_050 00000000  805fea00  805fea00  0000560c  2**0
                  CONTENTS
608 .inttab_tc2_051 00000000  805fea20  805fea20  0000560c  2**0
                  CONTENTS
609 .inttab_tc2_052 00000000  805fea40  805fea40  0000560c  2**0
                  CONTENTS
610 .inttab_tc2_053 00000000  805fea60  805fea60  0000560c  2**0
                  CONTENTS
611 .inttab_tc2_054 00000000  805fea80  805fea80  0000560c  2**0
                  CONTENTS
612 .inttab_tc2_055 00000000  805feaa0  805feaa0  0000560c  2**0
                  CONTENTS
613 .inttab_tc2_056 00000000  805feac0  805feac0  0000560c  2**0
                  CONTENTS
614 .inttab_tc2_057 00000000  805feae0  805feae0  0000560c  2**0
                  CONTENTS
615 .inttab_tc2_058 00000000  805feb00  805feb00  0000560c  2**0
                  CONTENTS
616 .inttab_tc2_059 00000000  805feb20  805feb20  0000560c  2**0
                  CONTENTS
617 .inttab_tc2_05A 00000000  805feb40  805feb40  0000560c  2**0
                  CONTENTS
618 .inttab_tc2_05B 00000000  805feb60  805feb60  0000560c  2**0
                  CONTENTS
619 .inttab_tc2_05C 00000000  805feb80  805feb80  0000560c  2**0
                  CONTENTS
620 .inttab_tc2_05D 00000000  805feba0  805feba0  0000560c  2**0
                  CONTENTS
621 .inttab_tc2_05E 00000000  805febc0  805febc0  0000560c  2**0
                  CONTENTS
622 .inttab_tc2_05F 00000000  805febe0  805febe0  0000560c  2**0
                  CONTENTS
623 .inttab_tc2_060 00000000  805fec00  805fec00  0000560c  2**0
                  CONTENTS
624 .inttab_tc2_061 00000000  805fec20  805fec20  0000560c  2**0
                  CONTENTS
625 .inttab_tc2_062 00000000  805fec40  805fec40  0000560c  2**0
                  CONTENTS
626 .inttab_tc2_063 00000000  805fec60  805fec60  0000560c  2**0
                  CONTENTS
627 .inttab_tc2_064 00000000  805fec80  805fec80  0000560c  2**0
                  CONTENTS
628 .inttab_tc2_065 00000000  805feca0  805feca0  0000560c  2**0
                  CONTENTS
629 .inttab_tc2_066 00000000  805fecc0  805fecc0  0000560c  2**0
                  CONTENTS
630 .inttab_tc2_067 00000000  805fece0  805fece0  0000560c  2**0
                  CONTENTS
631 .inttab_tc2_068 00000000  805fed00  805fed00  0000560c  2**0
                  CONTENTS
632 .inttab_tc2_069 00000000  805fed20  805fed20  0000560c  2**0
                  CONTENTS
633 .inttab_tc2_06A 00000000  805fed40  805fed40  0000560c  2**0
                  CONTENTS
634 .inttab_tc2_06B 00000000  805fed60  805fed60  0000560c  2**0
                  CONTENTS
635 .inttab_tc2_06C 00000000  805fed80  805fed80  0000560c  2**0
                  CONTENTS
636 .inttab_tc2_06D 00000000  805feda0  805feda0  0000560c  2**0
                  CONTENTS
637 .inttab_tc2_06E 00000000  805fedc0  805fedc0  0000560c  2**0
                  CONTENTS
638 .inttab_tc2_06F 00000000  805fede0  805fede0  0000560c  2**0
                  CONTENTS
639 .inttab_tc2_070 00000000  805fee00  805fee00  0000560c  2**0
                  CONTENTS
640 .inttab_tc2_071 00000000  805fee20  805fee20  0000560c  2**0
                  CONTENTS
641 .inttab_tc2_072 00000000  805fee40  805fee40  0000560c  2**0
                  CONTENTS
642 .inttab_tc2_073 00000000  805fee60  805fee60  0000560c  2**0
                  CONTENTS
643 .inttab_tc2_074 00000000  805fee80  805fee80  0000560c  2**0
                  CONTENTS
644 .inttab_tc2_075 00000000  805feea0  805feea0  0000560c  2**0
                  CONTENTS
645 .inttab_tc2_076 00000000  805feec0  805feec0  0000560c  2**0
                  CONTENTS
646 .inttab_tc2_077 00000000  805feee0  805feee0  0000560c  2**0
                  CONTENTS
647 .inttab_tc2_078 00000000  805fef00  805fef00  0000560c  2**0
                  CONTENTS
648 .inttab_tc2_079 00000000  805fef20  805fef20  0000560c  2**0
                  CONTENTS
649 .inttab_tc2_07A 00000000  805fef40  805fef40  0000560c  2**0
                  CONTENTS
650 .inttab_tc2_07B 00000000  805fef60  805fef60  0000560c  2**0
                  CONTENTS
651 .inttab_tc2_07C 00000000  805fef80  805fef80  0000560c  2**0
                  CONTENTS
652 .inttab_tc2_07D 00000000  805fefa0  805fefa0  0000560c  2**0
                  CONTENTS
653 .inttab_tc2_07E 00000000  805fefc0  805fefc0  0000560c  2**0
                  CONTENTS
654 .inttab_tc2_07F 00000000  805fefe0  805fefe0  0000560c  2**0
                  CONTENTS
655 .inttab_tc2_080 00000000  805ff000  805ff000  0000560c  2**0
                  CONTENTS
656 .inttab_tc2_081 00000000  805ff020  805ff020  0000560c  2**0
                  CONTENTS
657 .inttab_tc2_082 00000000  805ff040  805ff040  0000560c  2**0
                  CONTENTS
658 .inttab_tc2_083 00000000  805ff060  805ff060  0000560c  2**0
                  CONTENTS
659 .inttab_tc2_084 00000000  805ff080  805ff080  0000560c  2**0
                  CONTENTS
660 .inttab_tc2_085 00000000  805ff0a0  805ff0a0  0000560c  2**0
                  CONTENTS
661 .inttab_tc2_086 00000000  805ff0c0  805ff0c0  0000560c  2**0
                  CONTENTS
662 .inttab_tc2_087 00000000  805ff0e0  805ff0e0  0000560c  2**0
                  CONTENTS
663 .inttab_tc2_088 00000000  805ff100  805ff100  0000560c  2**0
                  CONTENTS
664 .inttab_tc2_089 00000000  805ff120  805ff120  0000560c  2**0
                  CONTENTS
665 .inttab_tc2_08A 00000000  805ff140  805ff140  0000560c  2**0
                  CONTENTS
666 .inttab_tc2_08B 00000000  805ff160  805ff160  0000560c  2**0
                  CONTENTS
667 .inttab_tc2_08C 00000000  805ff180  805ff180  0000560c  2**0
                  CONTENTS
668 .inttab_tc2_08D 00000000  805ff1a0  805ff1a0  0000560c  2**0
                  CONTENTS
669 .inttab_tc2_08E 00000000  805ff1c0  805ff1c0  0000560c  2**0
                  CONTENTS
670 .inttab_tc2_08F 00000000  805ff1e0  805ff1e0  0000560c  2**0
                  CONTENTS
671 .inttab_tc2_090 00000000  805ff200  805ff200  0000560c  2**0
                  CONTENTS
672 .inttab_tc2_091 00000000  805ff220  805ff220  0000560c  2**0
                  CONTENTS
673 .inttab_tc2_092 00000000  805ff240  805ff240  0000560c  2**0
                  CONTENTS
674 .inttab_tc2_093 00000000  805ff260  805ff260  0000560c  2**0
                  CONTENTS
675 .inttab_tc2_094 00000000  805ff280  805ff280  0000560c  2**0
                  CONTENTS
676 .inttab_tc2_095 00000000  805ff2a0  805ff2a0  0000560c  2**0
                  CONTENTS
677 .inttab_tc2_096 00000000  805ff2c0  805ff2c0  0000560c  2**0
                  CONTENTS
678 .inttab_tc2_097 00000000  805ff2e0  805ff2e0  0000560c  2**0
                  CONTENTS
679 .inttab_tc2_098 00000000  805ff300  805ff300  0000560c  2**0
                  CONTENTS
680 .inttab_tc2_099 00000000  805ff320  805ff320  0000560c  2**0
                  CONTENTS
681 .inttab_tc2_09A 00000000  805ff340  805ff340  0000560c  2**0
                  CONTENTS
682 .inttab_tc2_09B 00000000  805ff360  805ff360  0000560c  2**0
                  CONTENTS
683 .inttab_tc2_09C 00000000  805ff380  805ff380  0000560c  2**0
                  CONTENTS
684 .inttab_tc2_09D 00000000  805ff3a0  805ff3a0  0000560c  2**0
                  CONTENTS
685 .inttab_tc2_09E 00000000  805ff3c0  805ff3c0  0000560c  2**0
                  CONTENTS
686 .inttab_tc2_09F 00000000  805ff3e0  805ff3e0  0000560c  2**0
                  CONTENTS
687 .inttab_tc2_0A0 00000000  805ff400  805ff400  0000560c  2**0
                  CONTENTS
688 .inttab_tc2_0A1 00000000  805ff420  805ff420  0000560c  2**0
                  CONTENTS
689 .inttab_tc2_0A2 00000000  805ff440  805ff440  0000560c  2**0
                  CONTENTS
690 .inttab_tc2_0A3 00000000  805ff460  805ff460  0000560c  2**0
                  CONTENTS
691 .inttab_tc2_0A4 00000000  805ff480  805ff480  0000560c  2**0
                  CONTENTS
692 .inttab_tc2_0A5 00000000  805ff4a0  805ff4a0  0000560c  2**0
                  CONTENTS
693 .inttab_tc2_0A6 00000000  805ff4c0  805ff4c0  0000560c  2**0
                  CONTENTS
694 .inttab_tc2_0A7 00000000  805ff4e0  805ff4e0  0000560c  2**0
                  CONTENTS
695 .inttab_tc2_0A8 00000000  805ff500  805ff500  0000560c  2**0
                  CONTENTS
696 .inttab_tc2_0A9 00000000  805ff520  805ff520  0000560c  2**0
                  CONTENTS
697 .inttab_tc2_0AA 00000000  805ff540  805ff540  0000560c  2**0
                  CONTENTS
698 .inttab_tc2_0AB 00000000  805ff560  805ff560  0000560c  2**0
                  CONTENTS
699 .inttab_tc2_0AC 00000000  805ff580  805ff580  0000560c  2**0
                  CONTENTS
700 .inttab_tc2_0AD 00000000  805ff5a0  805ff5a0  0000560c  2**0
                  CONTENTS
701 .inttab_tc2_0AE 00000000  805ff5c0  805ff5c0  0000560c  2**0
                  CONTENTS
702 .inttab_tc2_0AF 00000000  805ff5e0  805ff5e0  0000560c  2**0
                  CONTENTS
703 .inttab_tc2_0B0 00000000  805ff600  805ff600  0000560c  2**0
                  CONTENTS
704 .inttab_tc2_0B1 00000000  805ff620  805ff620  0000560c  2**0
                  CONTENTS
705 .inttab_tc2_0B2 00000000  805ff640  805ff640  0000560c  2**0
                  CONTENTS
706 .inttab_tc2_0B3 00000000  805ff660  805ff660  0000560c  2**0
                  CONTENTS
707 .inttab_tc2_0B4 00000000  805ff680  805ff680  0000560c  2**0
                  CONTENTS
708 .inttab_tc2_0B5 00000000  805ff6a0  805ff6a0  0000560c  2**0
                  CONTENTS
709 .inttab_tc2_0B6 00000000  805ff6c0  805ff6c0  0000560c  2**0
                  CONTENTS
710 .inttab_tc2_0B7 00000000  805ff6e0  805ff6e0  0000560c  2**0
                  CONTENTS
711 .inttab_tc2_0B8 00000000  805ff700  805ff700  0000560c  2**0
                  CONTENTS
712 .inttab_tc2_0B9 00000000  805ff720  805ff720  0000560c  2**0
                  CONTENTS
713 .inttab_tc2_0BA 00000000  805ff740  805ff740  0000560c  2**0
                  CONTENTS
714 .inttab_tc2_0BB 00000000  805ff760  805ff760  0000560c  2**0
                  CONTENTS
715 .inttab_tc2_0BC 00000000  805ff780  805ff780  0000560c  2**0
                  CONTENTS
716 .inttab_tc2_0BD 00000000  805ff7a0  805ff7a0  0000560c  2**0
                  CONTENTS
717 .inttab_tc2_0BE 00000000  805ff7c0  805ff7c0  0000560c  2**0
                  CONTENTS
718 .inttab_tc2_0BF 00000000  805ff7e0  805ff7e0  0000560c  2**0
                  CONTENTS
719 .inttab_tc2_0C0 00000000  805ff800  805ff800  0000560c  2**0
                  CONTENTS
720 .inttab_tc2_0C1 00000000  805ff820  805ff820  0000560c  2**0
                  CONTENTS
721 .inttab_tc2_0C2 00000000  805ff840  805ff840  0000560c  2**0
                  CONTENTS
722 .inttab_tc2_0C3 00000000  805ff860  805ff860  0000560c  2**0
                  CONTENTS
723 .inttab_tc2_0C4 00000000  805ff880  805ff880  0000560c  2**0
                  CONTENTS
724 .inttab_tc2_0C5 00000000  805ff8a0  805ff8a0  0000560c  2**0
                  CONTENTS
725 .inttab_tc2_0C6 00000000  805ff8c0  805ff8c0  0000560c  2**0
                  CONTENTS
726 .inttab_tc2_0C7 00000000  805ff8e0  805ff8e0  0000560c  2**0
                  CONTENTS
727 .inttab_tc2_0C8 00000000  805ff900  805ff900  0000560c  2**0
                  CONTENTS
728 .inttab_tc2_0C9 00000000  805ff920  805ff920  0000560c  2**0
                  CONTENTS
729 .inttab_tc2_0CA 00000000  805ff940  805ff940  0000560c  2**0
                  CONTENTS
730 .inttab_tc2_0CB 00000000  805ff960  805ff960  0000560c  2**0
                  CONTENTS
731 .inttab_tc2_0CC 00000000  805ff980  805ff980  0000560c  2**0
                  CONTENTS
732 .inttab_tc2_0CD 00000000  805ff9a0  805ff9a0  0000560c  2**0
                  CONTENTS
733 .inttab_tc2_0CE 00000000  805ff9c0  805ff9c0  0000560c  2**0
                  CONTENTS
734 .inttab_tc2_0CF 00000000  805ff9e0  805ff9e0  0000560c  2**0
                  CONTENTS
735 .inttab_tc2_0D0 00000000  805ffa00  805ffa00  0000560c  2**0
                  CONTENTS
736 .inttab_tc2_0D1 00000000  805ffa20  805ffa20  0000560c  2**0
                  CONTENTS
737 .inttab_tc2_0D2 00000000  805ffa40  805ffa40  0000560c  2**0
                  CONTENTS
738 .inttab_tc2_0D3 00000000  805ffa60  805ffa60  0000560c  2**0
                  CONTENTS
739 .inttab_tc2_0D4 00000000  805ffa80  805ffa80  0000560c  2**0
                  CONTENTS
740 .inttab_tc2_0D5 00000000  805ffaa0  805ffaa0  0000560c  2**0
                  CONTENTS
741 .inttab_tc2_0D6 00000000  805ffac0  805ffac0  0000560c  2**0
                  CONTENTS
742 .inttab_tc2_0D7 00000000  805ffae0  805ffae0  0000560c  2**0
                  CONTENTS
743 .inttab_tc2_0D8 00000000  805ffb00  805ffb00  0000560c  2**0
                  CONTENTS
744 .inttab_tc2_0D9 00000000  805ffb20  805ffb20  0000560c  2**0
                  CONTENTS
745 .inttab_tc2_0DA 00000000  805ffb40  805ffb40  0000560c  2**0
                  CONTENTS
746 .inttab_tc2_0DB 00000000  805ffb60  805ffb60  0000560c  2**0
                  CONTENTS
747 .inttab_tc2_0DC 00000000  805ffb80  805ffb80  0000560c  2**0
                  CONTENTS
748 .inttab_tc2_0DD 00000000  805ffba0  805ffba0  0000560c  2**0
                  CONTENTS
749 .inttab_tc2_0DE 00000000  805ffbc0  805ffbc0  0000560c  2**0
                  CONTENTS
750 .inttab_tc2_0DF 00000000  805ffbe0  805ffbe0  0000560c  2**0
                  CONTENTS
751 .inttab_tc2_0E0 00000000  805ffc00  805ffc00  0000560c  2**0
                  CONTENTS
752 .inttab_tc2_0E1 00000000  805ffc20  805ffc20  0000560c  2**0
                  CONTENTS
753 .inttab_tc2_0E2 00000000  805ffc40  805ffc40  0000560c  2**0
                  CONTENTS
754 .inttab_tc2_0E3 00000000  805ffc60  805ffc60  0000560c  2**0
                  CONTENTS
755 .inttab_tc2_0E4 00000000  805ffc80  805ffc80  0000560c  2**0
                  CONTENTS
756 .inttab_tc2_0E5 00000000  805ffca0  805ffca0  0000560c  2**0
                  CONTENTS
757 .inttab_tc2_0E6 00000000  805ffcc0  805ffcc0  0000560c  2**0
                  CONTENTS
758 .inttab_tc2_0E7 00000000  805ffce0  805ffce0  0000560c  2**0
                  CONTENTS
759 .inttab_tc2_0E8 00000000  805ffd00  805ffd00  0000560c  2**0
                  CONTENTS
760 .inttab_tc2_0E9 00000000  805ffd20  805ffd20  0000560c  2**0
                  CONTENTS
761 .inttab_tc2_0EA 00000000  805ffd40  805ffd40  0000560c  2**0
                  CONTENTS
762 .inttab_tc2_0EB 00000000  805ffd60  805ffd60  0000560c  2**0
                  CONTENTS
763 .inttab_tc2_0EC 00000000  805ffd80  805ffd80  0000560c  2**0
                  CONTENTS
764 .inttab_tc2_0ED 00000000  805ffda0  805ffda0  0000560c  2**0
                  CONTENTS
765 .inttab_tc2_0EE 00000000  805ffdc0  805ffdc0  0000560c  2**0
                  CONTENTS
766 .inttab_tc2_0EF 00000000  805ffde0  805ffde0  0000560c  2**0
                  CONTENTS
767 .inttab_tc2_0F0 00000000  805ffe00  805ffe00  0000560c  2**0
                  CONTENTS
768 .inttab_tc2_0F1 00000000  805ffe20  805ffe20  0000560c  2**0
                  CONTENTS
769 .inttab_tc2_0F2 00000000  805ffe40  805ffe40  0000560c  2**0
                  CONTENTS
770 .inttab_tc2_0F3 00000000  805ffe60  805ffe60  0000560c  2**0
                  CONTENTS
771 .inttab_tc2_0F4 00000000  805ffe80  805ffe80  0000560c  2**0
                  CONTENTS
772 .inttab_tc2_0F5 00000000  805ffea0  805ffea0  0000560c  2**0
                  CONTENTS
773 .inttab_tc2_0F6 00000000  805ffec0  805ffec0  0000560c  2**0
                  CONTENTS
774 .inttab_tc2_0F7 00000000  805ffee0  805ffee0  0000560c  2**0
                  CONTENTS
775 .inttab_tc2_0F8 00000000  805fff00  805fff00  0000560c  2**0
                  CONTENTS
776 .inttab_tc2_0F9 00000000  805fff20  805fff20  0000560c  2**0
                  CONTENTS
777 .inttab_tc2_0FA 00000000  805fff40  805fff40  0000560c  2**0
                  CONTENTS
778 .inttab_tc2_0FB 00000000  805fff60  805fff60  0000560c  2**0
                  CONTENTS
779 .inttab_tc2_0FC 00000000  805fff80  805fff80  0000560c  2**0
                  CONTENTS
780 .inttab_tc2_0FD 00000000  805fffa0  805fffa0  0000560c  2**0
                  CONTENTS
781 .inttab_tc2_0FE 00000000  805fffc0  805fffc0  0000560c  2**0
                  CONTENTS
782 .inttab_tc2_0FF 00000000  805fffe0  805fffe0  0000560c  2**0
                  CONTENTS
783 .bmhd_0_org   000001f4  af400000  af400000  0000466c  2**2
                  CONTENTS, ALLOC, LOAD, READONLY, DATA
784 .bmhd_1_org   000001f4  af400200  af400200  00004860  2**2
                  CONTENTS, ALLOC, LOAD, READONLY, DATA
785 .bmhd_2_org   000001f4  af400400  af400400  00004a54  2**2
                  CONTENTS, ALLOC, LOAD, READONLY, DATA
786 .bmhd_3_org   000001f4  af400600  af400600  00004c48  2**2
                  CONTENTS, ALLOC, LOAD, READONLY, DATA
787 .bmhd_0_copy  000001f4  af401000  af401000  00004e3c  2**2
                  CONTENTS, ALLOC, LOAD, READONLY, DATA
788 .bmhd_1_copy  000001f4  af401200  af401200  00005030  2**2
                  CONTENTS, ALLOC, LOAD, READONLY, DATA
789 .bmhd_2_copy  000001f4  af401400  af401400  00005224  2**2
                  CONTENTS, ALLOC, LOAD, READONLY, DATA
790 .bmhd_3_copy  000001f4  af401600  af401600  00005418  2**2
                  CONTENTS, ALLOC, LOAD, READONLY, DATA
791 .CPU2.zdata   00000000  50000000  50000000  0000560c  2**0
                  CONTENTS
792 .CPU1.zdata   00000000  60000000  60000000  0000560c  2**0
                  CONTENTS
793 .CPU0.zdata   00000000  70000000  70000000  0000560c  2**0
                  CONTENTS
794 .zdata_powerOn 00000000  70000000  70000000  0000560c  2**0
                  CONTENTS
795 .zdata        00000000  70000000  70000000  0000560c  2**0
                  CONTENTS, ALLOC, LOAD, DATA
796 .lmuzdata     00000000  90000000  90000000  0000560c  2**0
                  CONTENTS
797 .sdata        00000000  70000000  70000000  0000560c  2**0
                  CONTENTS, ALLOC, LOAD, DATA, SMALL_DATA
798 .CPU2.data    00000000  50000000  50000000  0000560c  2**0
                  CONTENTS
799 .CPU2.lmudata 00000000  90020000  90020000  0000560c  2**0
                  CONTENTS
800 .CPU1.data    00000000  60000000  60000000  0000560c  2**0
                  CONTENTS
801 .CPU1.lmudata 00000000  90010000  90010000  0000560c  2**0
                  CONTENTS
802 .CPU0.data    00000000  70000000  70000000  0000560c  2**0
                  CONTENTS
803 .CPU0.lmudata 00000000  90000000  90000000  0000560c  2**0
                  CONTENTS
804 .sdata4       00000000  90000000  90000000  0000560c  2**0
                  CONTENTS, ALLOC, LOAD, DATA
805 .data         00000358  70000000  80000200  000004e0  2**2
                  CONTENTS, ALLOC, LOAD, DATA
806 .bss          0000006c  70000358  80000558  00000838  2**3
                  ALLOC
807 .heap         00001000  700003c4  80000558  00000838  2**0
                  ALLOC
808 .lmudata      00000000  90000000  90000000  0000560c  2**0
                  CONTENTS
809 .rodata       00000498  80000558  80000558  00000838  2**2
                  CONTENTS, ALLOC, LOAD, READONLY, DATA
810 .CPU0.psram_text 00000000  70100000  70100000  0000560c  2**0
                  CONTENTS
811 .CPU1.psram_text 00000000  60100000  60100000  0000560c  2**0
                  CONTENTS
812 .CPU2.psram_text 00000000  50100000  50100000  0000560c  2**0
                  CONTENTS
813 .CPU0.text    00000452  800009f0  800009f0  00000cd0  2**1
                  CONTENTS, ALLOC, LOAD, READONLY, CODE
814 .init         0000000c  80000e44  80000e44  00001124  2**2
                  CONTENTS, ALLOC, LOAD, READONLY, CODE
815 .fini         00000008  80000e50  80000e50  00001130  2**2
                  CONTENTS, ALLOC, LOAD, READONLY, CODE
816 .CPU1.text    00000202  8030022c  8030022c  00004260  2**1
                  CONTENTS, ALLOC, LOAD, READONLY, CODE
817 .CPU2.text    000001e4  8030042e  8030042e  00004462  2**1
                  CONTENTS, ALLOC, LOAD, READONLY, CODE
818 .text         00002f04  80000e58  80000e58  00001138  2**1
                  CONTENTS, ALLOC, LOAD, READONLY, CODE
819 .eh_frame     00000004  80003d5c  80003d5c  0000403c  2**0
                  ALLOC
820 .ctors        00000010  80003d60  80003d60  0000403c  2**2
                  CONTENTS, ALLOC, LOAD, DATA
821 .dtors        00000010  80003d70  80003d70  0000404c  2**2
                  CONTENTS, ALLOC, LOAD, DATA
822 .comment      0000001b  00000000  00000000  0000560c  2**0
                  CONTENTS, READONLY
823 .debug_aranges 00000188  00000000  00000000  00005627  2**0
                  CONTENTS, READONLY, DEBUGGING
824 .debug_info   00003c57  00000000  00000000  000057af  2**0
                  CONTENTS, READONLY, DEBUGGING
825 .debug_abbrev 00001096  00000000  00000000  00009406  2**0
                  CONTENTS, READONLY, DEBUGGING
826 .debug_line   0000117e  00000000  00000000  0000a49c  2**0
                  CONTENTS, READONLY, DEBUGGING
827 .debug_frame  000001b8  00000000  00000000  0000b61c  2**2
                  CONTENTS, READONLY, DEBUGGING
828 .debug_str    0000002e  00000000  00000000  0000b7d4  2**0
                  CONTENTS, READONLY, DEBUGGING
829 .debug_loclists 00000a92  00000000  00000000  0000b802  2**0
                  CONTENTS, READONLY, DEBUGGING
830 .debug_rnglists 00000132  00000000  00000000  0000c294  2**0
                  CONTENTS, READONLY, DEBUGGING

Disassembly of section .start_tc0:

a0000000 <_START>:
a0000000:	91 00 00 28 	movh.a %a2,32768
a0000004:	d9 22 98 f0 	lea %a2,[%a2]3032 <80000bd8 <__StartUpSoftware>>
a0000008:	dc 02       	ji %a2
a000000a:	00 90       	ret 

Disassembly of section .traptab_tc0:

80000100 <IfxCpu_Trap_vectorTable0>:
80000100:	0d 00 00 02 	svlcx 
80000104:	02 f4       	mov %d4,%d15
80000106:	91 00 00 28 	movh.a %a2,32768
8000010a:	d9 22 60 62 	lea %a2,[%a2]9632 <800025a0 <IfxCpu_Trap_memoryManagementError>>
8000010e:	dc 02       	ji %a2
80000110:	00 80       	rfe 
	...
8000011e:	00 00       	nop 
80000120:	0d 00 00 02 	svlcx 
80000124:	02 f4       	mov %d4,%d15
80000126:	91 00 00 28 	movh.a %a2,32768
8000012a:	d9 22 54 72 	lea %a2,[%a2]9684 <800025d4 <IfxCpu_Trap_internalProtectionError>>
8000012e:	dc 02       	ji %a2
80000130:	00 80       	rfe 
	...
8000013e:	00 00       	nop 
80000140:	0d 00 00 02 	svlcx 
80000144:	02 f4       	mov %d4,%d15
80000146:	91 00 00 28 	movh.a %a2,32768
8000014a:	d9 22 4c 82 	lea %a2,[%a2]9740 <8000260c <IfxCpu_Trap_instructionError>>
8000014e:	dc 02       	ji %a2
80000150:	00 80       	rfe 
	...
8000015e:	00 00       	nop 
80000160:	02 f4       	mov %d4,%d15
80000162:	91 00 00 28 	movh.a %a2,32768
80000166:	d9 22 44 92 	lea %a2,[%a2]9796 <80002644 <IfxCpu_Trap_contextManagementError>>
8000016a:	dc 02       	ji %a2
8000016c:	00 80       	rfe 
	...
8000017e:	00 00       	nop 
80000180:	0d 00 00 02 	svlcx 
80000184:	02 f4       	mov %d4,%d15
80000186:	91 00 00 28 	movh.a %a2,32768
8000018a:	d9 22 7c 92 	lea %a2,[%a2]9852 <8000267c <IfxCpu_Trap_busError>>
8000018e:	dc 02       	ji %a2
80000190:	00 80       	rfe 
	...
8000019e:	00 00       	nop 
800001a0:	0d 00 00 02 	svlcx 
800001a4:	02 f4       	mov %d4,%d15
800001a6:	91 00 00 28 	movh.a %a2,32768
800001aa:	d9 22 74 a2 	lea %a2,[%a2]9908 <800026b4 <IfxCpu_Trap_assertion>>
800001ae:	dc 02       	ji %a2
800001b0:	00 80       	rfe 
	...
800001be:	00 00       	nop 
800001c0:	0d 00 00 02 	svlcx 
800001c4:	02 f4       	mov %d4,%d15
800001c6:	91 00 00 28 	movh.a %a2,32768
800001ca:	d9 22 6e b2 	lea %a2,[%a2]9966 <800026ee <IfxCpu_Trap_systemCall_Cpu0>>
800001ce:	dc 02       	ji %a2
800001d0:	00 80       	rfe 
	...
800001de:	00 00       	nop 
800001e0:	0d 00 00 02 	svlcx 
800001e4:	02 f4       	mov %d4,%d15
800001e6:	91 00 00 28 	movh.a %a2,32768
800001ea:	d9 22 64 c2 	lea %a2,[%a2]10020 <80002724 <IfxCpu_Trap_nonMaskableInterrupt>>
800001ee:	dc 02       	ji %a2
800001f0:	00 80       	rfe 
800001f2:	00 90       	ret 

800001f4 <IfxCpu_Trap_vectorTable0_end>:
	...

Disassembly of section .traptab_tc1:

80300000 <IfxCpu_Trap_vectorTable1>:
80300000:	0d 00 00 02 	svlcx 
80300004:	02 f4       	mov %d4,%d15
80300006:	91 00 00 28 	movh.a %a2,32768
8030000a:	d9 22 60 62 	lea %a2,[%a2]9632 <800025a0 <IfxCpu_Trap_memoryManagementError>>
8030000e:	dc 02       	ji %a2
80300010:	00 80       	rfe 
	...
8030001e:	00 00       	nop 
80300020:	0d 00 00 02 	svlcx 
80300024:	02 f4       	mov %d4,%d15
80300026:	91 00 00 28 	movh.a %a2,32768
8030002a:	d9 22 54 72 	lea %a2,[%a2]9684 <800025d4 <IfxCpu_Trap_internalProtectionError>>
8030002e:	dc 02       	ji %a2
80300030:	00 80       	rfe 
	...
8030003e:	00 00       	nop 
80300040:	0d 00 00 02 	svlcx 
80300044:	02 f4       	mov %d4,%d15
80300046:	91 00 00 28 	movh.a %a2,32768
8030004a:	d9 22 4c 82 	lea %a2,[%a2]9740 <8000260c <IfxCpu_Trap_instructionError>>
8030004e:	dc 02       	ji %a2
80300050:	00 80       	rfe 
	...
8030005e:	00 00       	nop 
80300060:	02 f4       	mov %d4,%d15
80300062:	91 00 00 28 	movh.a %a2,32768
80300066:	d9 22 44 92 	lea %a2,[%a2]9796 <80002644 <IfxCpu_Trap_contextManagementError>>
8030006a:	dc 02       	ji %a2
8030006c:	00 80       	rfe 
	...
8030007e:	00 00       	nop 
80300080:	0d 00 00 02 	svlcx 
80300084:	02 f4       	mov %d4,%d15
80300086:	91 00 00 28 	movh.a %a2,32768
8030008a:	d9 22 7c 92 	lea %a2,[%a2]9852 <8000267c <IfxCpu_Trap_busError>>
8030008e:	dc 02       	ji %a2
80300090:	00 80       	rfe 
	...
8030009e:	00 00       	nop 
803000a0:	0d 00 00 02 	svlcx 
803000a4:	02 f4       	mov %d4,%d15
803000a6:	91 00 00 28 	movh.a %a2,32768
803000aa:	d9 22 74 a2 	lea %a2,[%a2]9908 <800026b4 <IfxCpu_Trap_assertion>>
803000ae:	dc 02       	ji %a2
803000b0:	00 80       	rfe 
	...
803000be:	00 00       	nop 
803000c0:	0d 00 00 02 	svlcx 
803000c4:	02 f4       	mov %d4,%d15
803000c6:	91 00 00 28 	movh.a %a2,32768
803000ca:	d9 22 50 e2 	lea %a2,[%a2]10128 <80002790 <IfxCpu_Trap_systemCall_Cpu1>>
803000ce:	dc 02       	ji %a2
803000d0:	00 80       	rfe 
	...
803000de:	00 00       	nop 
803000e0:	0d 00 00 02 	svlcx 
803000e4:	02 f4       	mov %d4,%d15
803000e6:	91 00 00 28 	movh.a %a2,32768
803000ea:	d9 22 64 c2 	lea %a2,[%a2]10020 <80002724 <IfxCpu_Trap_nonMaskableInterrupt>>
803000ee:	dc 02       	ji %a2
803000f0:	00 80       	rfe 
803000f2:	00 90       	ret 

803000f4 <IfxCpu_Trap_vectorTable1_end>:
	...

Disassembly of section .traptab_tc2:

80300100 <IfxCpu_Trap_vectorTable2>:
80300100:	0d 00 00 02 	svlcx 
80300104:	02 f4       	mov %d4,%d15
80300106:	91 00 00 28 	movh.a %a2,32768
8030010a:	d9 22 60 62 	lea %a2,[%a2]9632 <800025a0 <IfxCpu_Trap_memoryManagementError>>
8030010e:	dc 02       	ji %a2
80300110:	00 80       	rfe 
	...
8030011e:	00 00       	nop 
80300120:	0d 00 00 02 	svlcx 
80300124:	02 f4       	mov %d4,%d15
80300126:	91 00 00 28 	movh.a %a2,32768
8030012a:	d9 22 54 72 	lea %a2,[%a2]9684 <800025d4 <IfxCpu_Trap_internalProtectionError>>
8030012e:	dc 02       	ji %a2
80300130:	00 80       	rfe 
	...
8030013e:	00 00       	nop 
80300140:	0d 00 00 02 	svlcx 
80300144:	02 f4       	mov %d4,%d15
80300146:	91 00 00 28 	movh.a %a2,32768
8030014a:	d9 22 4c 82 	lea %a2,[%a2]9740 <8000260c <IfxCpu_Trap_instructionError>>
8030014e:	dc 02       	ji %a2
80300150:	00 80       	rfe 
	...
8030015e:	00 00       	nop 
80300160:	02 f4       	mov %d4,%d15
80300162:	91 00 00 28 	movh.a %a2,32768
80300166:	d9 22 44 92 	lea %a2,[%a2]9796 <80002644 <IfxCpu_Trap_contextManagementError>>
8030016a:	dc 02       	ji %a2
8030016c:	00 80       	rfe 
	...
8030017e:	00 00       	nop 
80300180:	0d 00 00 02 	svlcx 
80300184:	02 f4       	mov %d4,%d15
80300186:	91 00 00 28 	movh.a %a2,32768
8030018a:	d9 22 7c 92 	lea %a2,[%a2]9852 <8000267c <IfxCpu_Trap_busError>>
8030018e:	dc 02       	ji %a2
80300190:	00 80       	rfe 
	...
8030019e:	00 00       	nop 
803001a0:	0d 00 00 02 	svlcx 
803001a4:	02 f4       	mov %d4,%d15
803001a6:	91 00 00 28 	movh.a %a2,32768
803001aa:	d9 22 74 a2 	lea %a2,[%a2]9908 <800026b4 <IfxCpu_Trap_assertion>>
803001ae:	dc 02       	ji %a2
803001b0:	00 80       	rfe 
	...
803001be:	00 00       	nop 
803001c0:	0d 00 00 02 	svlcx 
803001c4:	02 f4       	mov %d4,%d15
803001c6:	91 00 00 28 	movh.a %a2,32768
803001ca:	d9 22 5a d2 	lea %a2,[%a2]10074 <8000275a <IfxCpu_Trap_systemCall_Cpu2>>
803001ce:	dc 02       	ji %a2
803001d0:	00 80       	rfe 
	...
803001de:	00 00       	nop 
803001e0:	0d 00 00 02 	svlcx 
803001e4:	02 f4       	mov %d4,%d15
803001e6:	91 00 00 28 	movh.a %a2,32768
803001ea:	d9 22 64 c2 	lea %a2,[%a2]10020 <80002724 <IfxCpu_Trap_nonMaskableInterrupt>>
803001ee:	dc 02       	ji %a2
803001f0:	00 80       	rfe 
803001f2:	00 90       	ret 

803001f4 <IfxCpu_Trap_vectorTable2_end>:
	...

Disassembly of section .start_tc1:

a0300200 <_START1>:
a0300200:	91 00 03 28 	movh.a %a2,32816
a0300204:	d9 22 2c 80 	lea %a2,[%a2]556 <8030022c <__Core1_start>>
a0300208:	dc 02       	ji %a2
a030020a:	00 90       	ret 

Disassembly of section .start_tc2:

a0300220 <_START2>:
a0300220:	91 00 03 28 	movh.a %a2,32816
a0300224:	d9 22 6e 00 	lea %a2,[%a2]1070 <8030042e <__Core2_start>>
a0300228:	dc 02       	ji %a2
a030022a:	00 90       	ret 

Disassembly of section .CPU0.text:

800009f0 <__StartUpSoftware_Phase2>:
800009f0:	91 00 00 28 	movh.a %a2,32768
800009f4:	d9 22 da f2 	lea %a2,[%a2]12250 <80002fda <Ifx_Ssw_Pms_Init>>
800009f8:	2d 02 20 00 	jli %a2
800009fc:	91 00 00 28 	movh.a %a2,32768
80000a00:	d9 22 2e 33 	lea %a2,[%a2]12526 <800030ee <Ifx_Ssw_Pms_InitCheck>>
80000a04:	2d 02 20 00 	jli %a2
80000a08:	91 00 00 28 	movh.a %a2,32768
80000a0c:	d9 22 94 80 	lea %a2,[%a2]2580 <80000a14 <__StartUpSoftware_Phase3PowerOnResetPath>>
80000a10:	dc 02       	ji %a2
80000a12:	00 90       	ret 

80000a14 <__StartUpSoftware_Phase3PowerOnResetPath>:
80000a14:	91 40 00 a7 	movh.a %sp,28676
80000a18:	d9 aa 40 89 	lea %sp,[%sp]-27136 <70039600 <__USTACK0>>
80000a1c:	0d 00 80 04 	dsync 
80000a20:	91 40 00 37 	movh.a %a3,28676
80000a24:	91 40 00 27 	movh.a %a2,28676
80000a28:	d9 33 c0 09 	lea %a3,[%a3]-25600 <70039c00 <__CSA0>>
80000a2c:	d9 22 c0 0b 	lea %a2,[%a2]-17408 <7003bc00 <__CSA0_END>>
80000a30:	01 32 20 20 	sub.a %a2,%a2,%a3
80000a34:	80 22       	mov.d %d2,%a2
80000a36:	8f a2 1f 60 	sh %d6,%d2,-6
80000a3a:	40 32       	mov.aa %a2,%a3
80000a3c:	1b d6 ff 0f 	addi %d0,%d6,-3
80000a40:	82 03       	mov %d3,0
80000a42:	80 32       	mov.d %d2,%a3
80000a44:	7b f0 00 70 	movh %d7,15
80000a48:	df 06 2d 00 	jeq %d6,0,80000aa2 <__StartUpSoftware_Phase3PowerOnResetPath+0x8e>
80000a4c:	37 02 70 43 	extr.u %d4,%d2,6,16
80000a50:	8f 42 1f 50 	sh %d5,%d2,-12
80000a54:	26 75       	and %d5,%d7
80000a56:	a6 54       	or %d4,%d5
80000a58:	df 03 14 00 	jeq %d3,0,80000a80 <__StartUpSoftware_Phase3PowerOnResetPath+0x6c>
80000a5c:	74 24       	st.w [%a2],%d4
80000a5e:	5f 03 15 00 	jeq %d3,%d0,80000a88 <__StartUpSoftware_Phase3PowerOnResetPath+0x74>
80000a62:	c2 13       	add %d3,1
80000a64:	60 22       	mov.a %a2,%d2
80000a66:	1b 02 04 40 	addi %d4,%d2,64
80000a6a:	5f 36 17 00 	jeq %d6,%d3,80000a98 <__StartUpSoftware_Phase3PowerOnResetPath+0x84>
80000a6e:	02 42       	mov %d2,%d4
80000a70:	37 02 70 43 	extr.u %d4,%d2,6,16
80000a74:	8f 42 1f 50 	sh %d5,%d2,-12
80000a78:	26 75       	and %d5,%d7
80000a7a:	a6 54       	or %d4,%d5
80000a7c:	df 03 f0 ff 	jne %d3,0,80000a5c <__StartUpSoftware_Phase3PowerOnResetPath+0x48>
80000a80:	cd 84 e3 0f 	mtcr $fcx,%d4
80000a84:	5f 03 ef ff 	jne %d3,%d0,80000a62 <__StartUpSoftware_Phase3PowerOnResetPath+0x4e>
80000a88:	cd c4 e3 0f 	mtcr $lcx,%d4
80000a8c:	c2 13       	add %d3,1
80000a8e:	60 22       	mov.a %a2,%d2
80000a90:	1b 02 04 40 	addi %d4,%d2,64
80000a94:	5f 36 ed ff 	jne %d6,%d3,80000a6e <__StartUpSoftware_Phase3PowerOnResetPath+0x5a>
80000a98:	1b f6 ff 2f 	addi %d2,%d6,-1
80000a9c:	06 62       	sh %d2,6
80000a9e:	01 32 00 26 	addsc.a %a2,%a3,%d2,0
80000aa2:	82 02       	mov %d2,0
80000aa4:	74 22       	st.w [%a2],%d2
80000aa6:	0d 00 80 04 	dsync 
80000aaa:	0d 00 c0 04 	isync 
80000aae:	91 00 00 28 	movh.a %a2,32768
80000ab2:	d9 22 8a e0 	lea %a2,[%a2]2954 <80000b8a <__StartUpSoftware_Phase4>>
80000ab6:	dc 02       	ji %a2
80000ab8:	00 90       	ret 

80000aba <__StartUpSoftware_Phase3ApplicationResetPath>:
80000aba:	91 40 00 a7 	movh.a %sp,28676
80000abe:	d9 aa 40 89 	lea %sp,[%sp]-27136 <70039600 <__USTACK0>>
80000ac2:	0d 00 80 04 	dsync 
80000ac6:	91 40 00 37 	movh.a %a3,28676
80000aca:	91 40 00 27 	movh.a %a2,28676
80000ace:	d9 33 c0 09 	lea %a3,[%a3]-25600 <70039c00 <__CSA0>>
80000ad2:	d9 22 c0 0b 	lea %a2,[%a2]-17408 <7003bc00 <__CSA0_END>>
80000ad6:	01 32 20 20 	sub.a %a2,%a2,%a3
80000ada:	80 22       	mov.d %d2,%a2
80000adc:	8f a2 1f 60 	sh %d6,%d2,-6
80000ae0:	40 32       	mov.aa %a2,%a3
80000ae2:	1b d6 ff 0f 	addi %d0,%d6,-3
80000ae6:	82 03       	mov %d3,0
80000ae8:	80 32       	mov.d %d2,%a3
80000aea:	7b f0 00 70 	movh %d7,15
80000aee:	df 06 2d 00 	jeq %d6,0,80000b48 <__StartUpSoftware_Phase3ApplicationResetPath+0x8e>
80000af2:	37 02 70 43 	extr.u %d4,%d2,6,16
80000af6:	8f 42 1f 50 	sh %d5,%d2,-12
80000afa:	26 75       	and %d5,%d7
80000afc:	a6 54       	or %d4,%d5
80000afe:	df 03 14 00 	jeq %d3,0,80000b26 <__StartUpSoftware_Phase3ApplicationResetPath+0x6c>
80000b02:	74 24       	st.w [%a2],%d4
80000b04:	5f 03 15 00 	jeq %d3,%d0,80000b2e <__StartUpSoftware_Phase3ApplicationResetPath+0x74>
80000b08:	c2 13       	add %d3,1
80000b0a:	60 22       	mov.a %a2,%d2
80000b0c:	1b 02 04 40 	addi %d4,%d2,64
80000b10:	5f 36 17 00 	jeq %d6,%d3,80000b3e <__StartUpSoftware_Phase3ApplicationResetPath+0x84>
80000b14:	02 42       	mov %d2,%d4
80000b16:	37 02 70 43 	extr.u %d4,%d2,6,16
80000b1a:	8f 42 1f 50 	sh %d5,%d2,-12
80000b1e:	26 75       	and %d5,%d7
80000b20:	a6 54       	or %d4,%d5
80000b22:	df 03 f0 ff 	jne %d3,0,80000b02 <__StartUpSoftware_Phase3ApplicationResetPath+0x48>
80000b26:	cd 84 e3 0f 	mtcr $fcx,%d4
80000b2a:	5f 03 ef ff 	jne %d3,%d0,80000b08 <__StartUpSoftware_Phase3ApplicationResetPath+0x4e>
80000b2e:	cd c4 e3 0f 	mtcr $lcx,%d4
80000b32:	c2 13       	add %d3,1
80000b34:	60 22       	mov.a %a2,%d2
80000b36:	1b 02 04 40 	addi %d4,%d2,64
80000b3a:	5f 36 ed ff 	jne %d6,%d3,80000b14 <__StartUpSoftware_Phase3ApplicationResetPath+0x5a>
80000b3e:	1b f6 ff 2f 	addi %d2,%d6,-1
80000b42:	06 62       	sh %d2,6
80000b44:	01 32 00 26 	addsc.a %a2,%a3,%d2,0
80000b48:	82 02       	mov %d2,0
80000b4a:	74 22       	st.w [%a2],%d2
80000b4c:	0d 00 80 04 	dsync 
80000b50:	0d 00 c0 04 	isync 
80000b54:	91 00 00 28 	movh.a %a2,32768
80000b58:	d9 22 a0 d0 	lea %a2,[%a2]2912 <80000b60 <__StartUpSoftware_Phase5>>
80000b5c:	dc 02       	ji %a2
80000b5e:	00 90       	ret 

80000b60 <__StartUpSoftware_Phase5>:
80000b60:	91 00 00 28 	movh.a %a2,32768
80000b64:	d9 22 ac d0 	lea %a2,[%a2]2924 <80000b6c <__StartUpSoftware_Phase6>>
80000b68:	dc 02       	ji %a2
80000b6a:	00 90       	ret 

80000b6c <__StartUpSoftware_Phase6>:
80000b6c:	91 00 03 2a 	movh.a %a2,41008
80000b70:	80 22       	mov.d %d2,%a2
80000b72:	1b 02 20 40 	addi %d4,%d2,512
80000b76:	91 20 88 4f 	movh.a %a4,63618
80000b7a:	6d 00 e3 0f 	call 80002b40 <Ifx_Ssw_startCore>
80000b7e:	91 00 00 28 	movh.a %a2,32768
80000b82:	d9 22 dc 10 	lea %a2,[%a2]3164 <80000c5c <__Core0_start>>
80000b86:	dc 02       	ji %a2
80000b88:	00 90       	ret 

80000b8a <__StartUpSoftware_Phase4>:
80000b8a:	91 30 00 4f 	movh.a %a4,61443
80000b8e:	19 44 0c 96 	ld.w %d4,[%a4]25164 <f003624c <bmhd_3_copy+0x40c34c4c>>
80000b92:	91 30 00 2f 	movh.a %a2,61443
80000b96:	19 28 28 a6 	ld.w %d8,[%a2]25256 <f00362a8 <bmhd_3_copy+0x40c34ca8>>
80000b9a:	37 04 6e 41 	extr.u %d4,%d4,2,14
80000b9e:	d9 44 0c 96 	lea %a4,[%a4]25164 <f003624c <bmhd_3_copy+0x40c34c4c>>
80000ba2:	d9 22 28 a6 	lea %a2,[%a2]25256 <f00362a8 <bmhd_3_copy+0x40c34ca8>>
80000ba6:	8f f4 83 41 	xor %d4,%d4,63
80000baa:	37 08 6e 81 	extr.u %d8,%d8,2,14
80000bae:	6d 00 9d 0e 	call 800028e8 <Ifx_Ssw_serviceCpuWatchdog>
80000bb2:	8f f8 83 41 	xor %d4,%d8,63
80000bb6:	6d 00 af 0e 	call 80002914 <Ifx_Ssw_serviceSafetyWatchdog>
80000bba:	91 00 00 48 	movh.a %a4,32768
80000bbe:	d9 44 50 60 	lea %a4,[%a4]1424 <80000590 <IfxScuCcu_defaultClockConfig>>
80000bc2:	6d 00 5b 03 	call 80001278 <IfxScuCcu_init>
80000bc6:	df 12 03 80 	jne %d2,1,80000bcc <__StartUpSoftware_Phase4+0x42>
80000bca:	00 a0       	debug 
80000bcc:	91 00 00 28 	movh.a %a2,32768
80000bd0:	d9 22 a0 d0 	lea %a2,[%a2]2912 <80000b60 <__StartUpSoftware_Phase5>>
80000bd4:	dc 02       	ji %a2
80000bd6:	00 90       	ret 

80000bd8 <__StartUpSoftware>:
80000bd8:	91 10 00 18 	movh.a %a1,32769
80000bdc:	d9 11 00 08 	lea %a1,[%a1]-32768 <80008000 <_SMALL_DATA2_>>
80000be0:	3b 00 98 20 	mov %d2,2432
80000be4:	cd 42 e0 0f 	mtcr $psw,%d2
80000be8:	91 30 00 2f 	movh.a %a2,61443
80000bec:	19 22 10 16 	ld.w %d2,[%a2]24656 <f0036050 <bmhd_3_copy+0x40c34a50>>
80000bf0:	7b d0 38 31 	movh %d3,5005
80000bf4:	26 23       	and %d3,%d2
80000bf6:	d9 22 10 16 	lea %a2,[%a2]24656 <f0036050 <bmhd_3_copy+0x40c34a50>>
80000bfa:	df 03 15 80 	jne %d3,0,80000c24 <__StartUpSoftware+0x4c>
80000bfe:	8f b2 0f 31 	and %d3,%d2,251
80000c02:	df 03 17 00 	jeq %d3,0,80000c30 <__StartUpSoftware+0x58>
80000c06:	91 30 00 2f 	movh.a %a2,61443
80000c0a:	0f 03 b0 21 	clz %d2,%d3
80000c0e:	8b f2 01 21 	rsub %d2,%d2,31
80000c12:	19 23 18 16 	ld.w %d3,[%a2]24664 <f0036058 <bmhd_3_copy+0x40c34a58>>
80000c16:	06 12       	sh %d2,1
80000c18:	57 03 62 22 	extr.u %d2,%d3,%d2,2
80000c1c:	d9 22 18 16 	lea %a2,[%a2]24664 <f0036058 <bmhd_3_copy+0x40c34a58>>
80000c20:	df 22 0a 00 	jeq %d2,2,80000c34 <__StartUpSoftware+0x5c>
80000c24:	91 00 00 28 	movh.a %a2,32768
80000c28:	d9 22 b0 70 	lea %a2,[%a2]2544 <800009f0 <__StartUpSoftware_Phase2>>
80000c2c:	dc 02       	ji %a2
80000c2e:	00 90       	ret 
80000c30:	ef 42 08 00 	jz.t %d2,20,80000c40 <__StartUpSoftware+0x68>
80000c34:	91 00 00 28 	movh.a %a2,32768
80000c38:	d9 22 ba a0 	lea %a2,[%a2]2746 <80000aba <__StartUpSoftware_Phase3ApplicationResetPath>>
80000c3c:	dc 02       	ji %a2
80000c3e:	00 90       	ret 
80000c40:	91 10 88 2f 	movh.a %a2,63617
80000c44:	19 22 00 0d 	ld.w %d2,[%a2]-12288 <f880d000 <bmhd_3_copy+0x4940ba00>>
80000c48:	d9 22 00 0d 	lea %a2,[%a2]-12288 <f880d000 <bmhd_3_copy+0x4940ba00>>
80000c4c:	37 02 e2 20 	extr.u %d2,%d2,1,2
80000c50:	df 02 f2 ff 	jne %d2,0,80000c34 <__StartUpSoftware+0x5c>
80000c54:	1d ff e8 ff 	j 80000c24 <__StartUpSoftware+0x4c>

80000c58 <hardware_init_hook>:
80000c58:	00 90       	ret 

80000c5a <software_init_hook>:
80000c5a:	00 90       	ret 

80000c5c <__Core0_start>:
80000c5c:	91 30 00 2f 	movh.a %a2,61443
80000c60:	91 30 00 3f 	movh.a %a3,61443
80000c64:	19 23 0c 96 	ld.w %d3,[%a2]25164 <f003624c <bmhd_3_copy+0x40c34c4c>>
80000c68:	19 32 28 a6 	ld.w %d2,[%a3]25256 <f00362a8 <bmhd_3_copy+0x40c34ca8>>
80000c6c:	37 03 6e 31 	extr.u %d3,%d3,2,14
80000c70:	37 02 6e 21 	extr.u %d2,%d2,2,14
80000c74:	19 24 0c 96 	ld.w %d4,[%a2]25164 <f003624c <bmhd_3_copy+0x40c34c4c>>
80000c78:	8f f3 83 81 	xor %d8,%d3,63
80000c7c:	d9 22 0c 96 	lea %a2,[%a2]25164 <f003624c <bmhd_3_copy+0x40c34c4c>>
80000c80:	d9 33 28 a6 	lea %a3,[%a3]25256 <f00362a8 <bmhd_3_copy+0x40c34ca8>>
80000c84:	8f f2 83 91 	xor %d9,%d2,63
80000c88:	8f 28 00 20 	sh %d2,%d8,2
80000c8c:	6f 14 0b 00 	jz.t %d4,1,80000ca2 <__Core0_start+0x46>
80000c90:	54 23       	ld.w %d3,[%a2]
80000c92:	8f 28 00 20 	sh %d2,%d8,2
80000c96:	b7 03 10 30 	insert %d3,%d3,0,0,16
80000c9a:	a6 23       	or %d3,%d2
80000c9c:	8f 13 40 31 	or %d3,%d3,1
80000ca0:	74 23       	st.w [%a2],%d3
80000ca2:	91 30 00 2f 	movh.a %a2,61443
80000ca6:	19 24 0c 96 	ld.w %d4,[%a2]25164 <f003624c <bmhd_3_copy+0x40c34c4c>>
80000caa:	d9 22 0c 96 	lea %a2,[%a2]25164 <f003624c <bmhd_3_copy+0x40c34c4c>>
80000cae:	b7 04 10 40 	insert %d4,%d4,0,0,16
80000cb2:	82 03       	mov %d3,0
80000cb4:	a6 24       	or %d4,%d2
80000cb6:	8f 24 40 41 	or %d4,%d4,2
80000cba:	74 24       	st.w [%a2],%d4
80000cbc:	54 24       	ld.w %d4,[%a2]
80000cbe:	cd c3 20 09 	mtcr $pcon0,%d3
80000cc2:	0d 00 c0 04 	isync 
80000cc6:	cd 03 04 09 	mtcr $dcon0,%d3
80000cca:	0d 00 c0 04 	isync 
80000cce:	91 10 00 07 	movh.a %a0,28673
80000cd2:	d9 00 00 08 	lea %a0,[%a0]-32768 <70008000 <_SMALL_DATA_>>
80000cd6:	91 10 00 88 	movh.a %a8,32769
80000cda:	d9 88 00 08 	lea %a8,[%a8]-32768 <80008000 <_SMALL_DATA2_>>
80000cde:	91 10 00 99 	movh.a %a9,36865
80000ce2:	d9 99 00 08 	lea %a9,[%a9]-32768 <90008000 <_SMALL_DATA4_>>
80000ce6:	91 00 00 38 	movh.a %a3,32768
80000cea:	80 33       	mov.d %d3,%a3
80000cec:	1b 03 10 30 	addi %d3,%d3,256
80000cf0:	cd 43 e2 0f 	mtcr $btv,%d3
80000cf4:	91 00 03 38 	movh.a %a3,32816
80000cf8:	80 33       	mov.d %d3,%a3
80000cfa:	1b 03 00 3e 	addi %d3,%d3,-8192
80000cfe:	cd 03 e2 0f 	mtcr $biv,%d3
80000d02:	91 40 00 37 	movh.a %a3,28676
80000d06:	80 33       	mov.d %d3,%a3
80000d08:	1b 03 b0 39 	addi %d3,%d3,-25856
80000d0c:	cd 83 e2 0f 	mtcr $isp,%d3
80000d10:	54 23       	ld.w %d3,[%a2]
80000d12:	6f 13 09 00 	jz.t %d3,1,80000d24 <__Core0_start+0xc8>
80000d16:	54 23       	ld.w %d3,[%a2]
80000d18:	b7 03 10 30 	insert %d3,%d3,0,0,16
80000d1c:	a6 23       	or %d3,%d2
80000d1e:	8f 13 40 31 	or %d3,%d3,1
80000d22:	74 23       	st.w [%a2],%d3
80000d24:	91 30 00 cf 	movh.a %a12,61443
80000d28:	19 c3 0c 96 	ld.w %d3,[%a12]25164 <f003624c <bmhd_3_copy+0x40c34c4c>>
80000d2c:	d9 cc 0c 96 	lea %a12,[%a12]25164 <f003624c <bmhd_3_copy+0x40c34c4c>>
80000d30:	b7 03 10 30 	insert %d3,%d3,0,0,16
80000d34:	40 c4       	mov.aa %a4,%a12
80000d36:	a6 32       	or %d2,%d3
80000d38:	8f 32 40 21 	or %d2,%d2,3
80000d3c:	02 84       	mov %d4,%d8
80000d3e:	74 c2       	st.w [%a12],%d2
80000d40:	54 c2       	ld.w %d2,[%a12]
80000d42:	6d 00 09 0e 	call 80002954 <Ifx_Ssw_disableCpuWatchdog>
80000d46:	02 94       	mov %d4,%d9
80000d48:	6d 00 82 0e 	call 80002a4c <Ifx_Ssw_disableSafetyWatchdog>
80000d4c:	6d ff 86 ff 	call 80000c58 <hardware_init_hook>
80000d50:	6d 00 5d 0f 	call 80002c0a <Ifx_Ssw_doCppInit>
80000d54:	6d ff 83 ff 	call 80000c5a <software_init_hook>
80000d58:	02 94       	mov %d4,%d9
80000d5a:	6d 00 b6 0e 	call 80002ac6 <Ifx_Ssw_enableSafetyWatchdog>
80000d5e:	02 84       	mov %d4,%d8
80000d60:	40 c4       	mov.aa %a4,%a12
80000d62:	6d 00 37 0e 	call 800029d0 <Ifx_Ssw_enableCpuWatchdog>
80000d66:	91 00 00 28 	movh.a %a2,32768
80000d6a:	d9 22 f6 50 	lea %a2,[%a2]3446 <80000d76 <core0_main>>
80000d6e:	dc 02       	ji %a2

80000d70 <x>:
80000d70:	fd 00 00 80 	loopu 80000d70 <x>
80000d74:	00 90       	ret 

80000d76 <core0_main>:
80000d76:	0d 00 00 03 	enable 
80000d7a:	6d 00 ef 09 	call 80002158 <IfxScuWdt_getCpuWatchdogPassword>
80000d7e:	02 24       	mov %d4,%d2
80000d80:	6d 00 6b 09 	call 80002056 <IfxScuWdt_disableCpuWatchdog>
80000d84:	6d 00 fb 09 	call 8000217a <IfxScuWdt_getSafetyWatchdogPassword>
80000d88:	02 24       	mov %d4,%d2
80000d8a:	91 00 00 c7 	movh.a %a12,28672
80000d8e:	6d 00 a3 09 	call 800020d4 <IfxScuWdt_disableSafetyWatchdog>
80000d92:	d9 cc 20 d0 	lea %a12,[%a12]864 <70000360 <g_cpuSyncEvent>>
80000d96:	40 c4       	mov.aa %a4,%a12
80000d98:	6d 00 58 0d 	call 80002848 <IfxCpu_emitEvent>
80000d9c:	40 c4       	mov.aa %a4,%a12
80000d9e:	82 14       	mov %d4,1
80000da0:	6d 00 13 0d 	call 800027c6 <IfxCpu_waitEvent>
80000da4:	6d 00 da 09 	call 80002158 <IfxScuWdt_getCpuWatchdogPassword>
80000da8:	02 24       	mov %d4,%d2
80000daa:	6d 00 34 09 	call 80002012 <IfxScuWdt_clearSafetyEndinit>
80000dae:	82 04       	mov %d4,0
80000db0:	6d 00 c1 12 	call 80003332 <IfxScr_init>
80000db4:	6d 00 d2 09 	call 80002158 <IfxScuWdt_getCpuWatchdogPassword>
80000db8:	02 24       	mov %d4,%d2
80000dba:	6d 00 0e 0a 	call 800021d6 <IfxScuWdt_setSafetyEndinit>
80000dbe:	6d 00 41 12 	call 80003240 <IfxScr_copyProgram>
80000dc2:	6d 00 cb 09 	call 80002158 <IfxScuWdt_getCpuWatchdogPassword>
80000dc6:	02 24       	mov %d4,%d2
80000dc8:	6d 00 25 09 	call 80002012 <IfxScuWdt_clearSafetyEndinit>
80000dcc:	82 14       	mov %d4,1
80000dce:	6d 00 b2 12 	call 80003332 <IfxScr_init>
80000dd2:	6d 00 c3 09 	call 80002158 <IfxScuWdt_getCpuWatchdogPassword>
80000dd6:	02 24       	mov %d4,%d2
80000dd8:	6d 00 ff 09 	call 800021d6 <IfxScuWdt_setSafetyEndinit>
80000ddc:	6d 00 be 09 	call 80002158 <IfxScuWdt_getCpuWatchdogPassword>
80000de0:	02 24       	mov %d4,%d2
80000de2:	6d 00 18 09 	call 80002012 <IfxScuWdt_clearSafetyEndinit>
80000de6:	91 40 00 2f 	movh.a %a2,61444
80000dea:	d9 22 24 5c 	lea %a2,[%a2]-16028 <f003c164 <bmhd_3_copy+0x40c3ab64>>
80000dee:	54 22       	ld.w %d2,[%a2]
80000df0:	bf 02 ff 7f 	jlt %d2,0,80000dee <core0_main+0x78>
80000df4:	bb f0 ef 2f 	mov.u %d2,65279
80000df8:	74 22       	st.w [%a2],%d2
80000dfa:	91 40 00 2f 	movh.a %a2,61444
80000dfe:	d9 22 24 9c 	lea %a2,[%a2]-15772 <f003c264 <bmhd_3_copy+0x40c3ac64>>
80000e02:	54 22       	ld.w %d2,[%a2]
80000e04:	bf 02 ff 7f 	jlt %d2,0,80000e02 <core0_main+0x8c>
80000e08:	82 22       	mov %d2,2
80000e0a:	74 22       	st.w [%a2],%d2
80000e0c:	6d 00 a6 09 	call 80002158 <IfxScuWdt_getCpuWatchdogPassword>
80000e10:	02 24       	mov %d4,%d2
80000e12:	6d 00 e2 09 	call 800021d6 <IfxScuWdt_setSafetyEndinit>
80000e16:	82 04       	mov %d4,0
80000e18:	6d 00 17 01 	call 80001046 <IfxScuCcu_getSourceFrequency>
80000e1c:	91 30 00 2f 	movh.a %a2,61443
80000e20:	d9 22 30 06 	lea %a2,[%a2]24624 <f0036030 <bmhd_3_copy+0x40c34a30>>
80000e24:	54 22       	ld.w %d2,[%a2]
80000e26:	6d 00 d8 11 	call 800031d6 <initGtmTomPwm>
80000e2a:	91 00 00 27 	movh.a %a2,28672
80000e2e:	91 40 02 3f 	movh.a %a3,61476
80000e32:	d9 22 24 d0 	lea %a2,[%a2]868 <70000364 <goloba_var>>
80000e36:	d9 33 c0 c1 	lea %a3,[%a3]7936 <f0241f00 <bmhd_3_copy+0x40e40900>>
80000e3a:	54 32       	ld.w %d2,[%a3]
80000e3c:	74 22       	st.w [%a2],%d2
80000e3e:	1d ff fe ff 	j 80000e3a <core0_main+0xc4>

Disassembly of section .init:

80000e44 <_init>:
80000e44:	6d 00 6e 00 	call 80000f20 <frame_dummy>
80000e48:	6d 00 77 17 	call 80003d36 <__do_global_ctors_aux>
80000e4c:	00 90       	ret 
	...

Disassembly of section .fini:

80000e50 <_fini>:
80000e50:	6d 00 36 00 	call 80000ebc <__do_global_dtors_aux>
80000e54:	00 90       	ret 
	...

Disassembly of section .CPU1.text:

8030022c <__Core1_start>:
8030022c:	91 30 00 2f 	movh.a %a2,61443
80300230:	d9 22 18 96 	lea %a2,[%a2]25176 <f0036258 <bmhd_3_copy+0x40c34c58>>
80300234:	85 f8 10 01 	ld.w %d8,f0001010 <bmhd_3_copy+0x40bffa10>
80300238:	54 22       	ld.w %d2,[%a2]
8030023a:	37 02 6e 21 	extr.u %d2,%d2,2,14
8030023e:	8f f2 83 21 	xor %d2,%d2,63
80300242:	91 40 00 a6 	movh.a %sp,24580
80300246:	d9 aa 40 89 	lea %sp,[%sp]-27136 <60039600 <__USTACK1>>
8030024a:	0d 00 80 04 	dsync 
8030024e:	3b 00 98 30 	mov %d3,2432
80300252:	cd 43 e0 0f 	mtcr $psw,%d3
80300256:	54 23       	ld.w %d3,[%a2]
80300258:	6f 13 c7 80 	jnz.t %d3,1,803003e6 <x+0x6>
8030025c:	06 22       	sh %d2,2
8030025e:	91 30 00 2f 	movh.a %a2,61443
80300262:	19 24 18 96 	ld.w %d4,[%a2]25176 <f0036258 <bmhd_3_copy+0x40c34c58>>
80300266:	d9 22 18 96 	lea %a2,[%a2]25176 <f0036258 <bmhd_3_copy+0x40c34c58>>
8030026a:	b7 04 10 40 	insert %d4,%d4,0,0,16
8030026e:	82 03       	mov %d3,0
80300270:	a6 24       	or %d4,%d2
80300272:	8f 24 40 41 	or %d4,%d4,2
80300276:	74 24       	st.w [%a2],%d4
80300278:	54 24       	ld.w %d4,[%a2]
8030027a:	cd c3 20 09 	mtcr $pcon0,%d3
8030027e:	0d 00 c0 04 	isync 
80300282:	cd 03 04 09 	mtcr $dcon0,%d3
80300286:	0d 00 c0 04 	isync 
8030028a:	91 00 03 38 	movh.a %a3,32816
8030028e:	80 33       	mov.d %d3,%a3
80300290:	1b 03 00 30 	addi %d3,%d3,0
80300294:	cd 43 e2 0f 	mtcr $btv,%d3
80300298:	91 00 06 38 	movh.a %a3,32864
8030029c:	80 33       	mov.d %d3,%a3
8030029e:	1b 03 00 3c 	addi %d3,%d3,-16384
803002a2:	cd 03 e2 0f 	mtcr $biv,%d3
803002a6:	91 40 00 36 	movh.a %a3,24580
803002aa:	80 33       	mov.d %d3,%a3
803002ac:	1b 03 b0 39 	addi %d3,%d3,-25856
803002b0:	cd 83 e2 0f 	mtcr $isp,%d3
803002b4:	54 23       	ld.w %d3,[%a2]
803002b6:	6f 13 09 00 	jz.t %d3,1,803002c8 <__Core1_start+0x9c>
803002ba:	54 23       	ld.w %d3,[%a2]
803002bc:	b7 03 10 30 	insert %d3,%d3,0,0,16
803002c0:	a6 23       	or %d3,%d2
803002c2:	8f 13 40 31 	or %d3,%d3,1
803002c6:	74 23       	st.w [%a2],%d3
803002c8:	91 30 00 2f 	movh.a %a2,61443
803002cc:	19 23 18 96 	ld.w %d3,[%a2]25176 <f0036258 <bmhd_3_copy+0x40c34c58>>
803002d0:	d9 22 18 96 	lea %a2,[%a2]25176 <f0036258 <bmhd_3_copy+0x40c34c58>>
803002d4:	b7 03 10 30 	insert %d3,%d3,0,0,16
803002d8:	a6 32       	or %d2,%d3
803002da:	8f 32 40 21 	or %d2,%d2,3
803002de:	74 22       	st.w [%a2],%d2
803002e0:	54 22       	ld.w %d2,[%a2]
803002e2:	91 10 00 07 	movh.a %a0,28673
803002e6:	d9 00 00 08 	lea %a0,[%a0]-32768 <70008000 <_SMALL_DATA_>>
803002ea:	91 10 00 18 	movh.a %a1,32769
803002ee:	d9 11 00 08 	lea %a1,[%a1]-32768 <80008000 <_SMALL_DATA2_>>
803002f2:	91 10 00 88 	movh.a %a8,32769
803002f6:	d9 88 00 08 	lea %a8,[%a8]-32768 <80008000 <_SMALL_DATA2_>>
803002fa:	91 10 00 99 	movh.a %a9,36865
803002fe:	d9 99 00 08 	lea %a9,[%a9]-32768 <90008000 <_SMALL_DATA4_>>
80300302:	91 40 00 36 	movh.a %a3,24580
80300306:	91 40 00 26 	movh.a %a2,24580
8030030a:	d9 33 c0 09 	lea %a3,[%a3]-25600 <60039c00 <__CSA1>>
8030030e:	d9 22 c0 0b 	lea %a2,[%a2]-17408 <6003bc00 <__CSA1_END>>
80300312:	01 32 20 20 	sub.a %a2,%a2,%a3
80300316:	80 22       	mov.d %d2,%a2
80300318:	8f a2 1f 60 	sh %d6,%d2,-6
8030031c:	40 32       	mov.aa %a2,%a3
8030031e:	1b d6 ff 0f 	addi %d0,%d6,-3
80300322:	82 03       	mov %d3,0
80300324:	80 32       	mov.d %d2,%a3
80300326:	7b f0 00 70 	movh %d7,15
8030032a:	df 06 2d 00 	jeq %d6,0,80300384 <__Core1_start+0x158>
8030032e:	37 02 70 43 	extr.u %d4,%d2,6,16
80300332:	8f 42 1f 50 	sh %d5,%d2,-12
80300336:	26 75       	and %d5,%d7
80300338:	a6 54       	or %d4,%d5
8030033a:	df 03 14 00 	jeq %d3,0,80300362 <__Core1_start+0x136>
8030033e:	74 24       	st.w [%a2],%d4
80300340:	5f 03 15 00 	jeq %d3,%d0,8030036a <__Core1_start+0x13e>
80300344:	c2 13       	add %d3,1
80300346:	60 22       	mov.a %a2,%d2
80300348:	1b 02 04 40 	addi %d4,%d2,64
8030034c:	5f 36 17 00 	jeq %d6,%d3,8030037a <__Core1_start+0x14e>
80300350:	02 42       	mov %d2,%d4
80300352:	37 02 70 43 	extr.u %d4,%d2,6,16
80300356:	8f 42 1f 50 	sh %d5,%d2,-12
8030035a:	26 75       	and %d5,%d7
8030035c:	a6 54       	or %d4,%d5
8030035e:	df 03 f0 ff 	jne %d3,0,8030033e <__Core1_start+0x112>
80300362:	cd 84 e3 0f 	mtcr $fcx,%d4
80300366:	5f 03 ef ff 	jne %d3,%d0,80300344 <__Core1_start+0x118>
8030036a:	cd c4 e3 0f 	mtcr $lcx,%d4
8030036e:	c2 13       	add %d3,1
80300370:	60 22       	mov.a %a2,%d2
80300372:	1b 02 04 40 	addi %d4,%d2,64
80300376:	5f 36 ed ff 	jne %d6,%d3,80300350 <__Core1_start+0x124>
8030037a:	1b f6 ff 2f 	addi %d2,%d6,-1
8030037e:	06 62       	sh %d2,6
80300380:	01 32 00 26 	addsc.a %a2,%a3,%d2,0
80300384:	82 02       	mov %d2,0
80300386:	74 22       	st.w [%a2],%d2
80300388:	0d 00 80 04 	dsync 
8030038c:	0d 00 c0 04 	isync 
80300390:	6d e8 ef 13 	call 80002b6e <Ifx_Ssw_getStmFrequency>
80300394:	02 24       	mov %d4,%d2
80300396:	6d e8 14 18 	call 800033be <__extendsfdf2>
8030039a:	0b 23 10 48 	mov %e4,%d3,%d2
8030039e:	7b c0 b1 6e 	movh %d6,60188
803003a2:	7b a0 f1 73 	movh %d7,16154
803003a6:	1b d6 32 64 	addi %d6,%d6,17197
803003aa:	1b 27 6e 73 	addi %d7,%d7,14050
803003ae:	6d e8 70 19 	call 8000368e <__muldf3>
803003b2:	0b 23 10 48 	mov %e4,%d3,%d2
803003b6:	6d e8 e8 17 	call 80003386 <__fixunsdfsi>
803003ba:	85 f3 10 01 	ld.w %d3,f0001010 <bmhd_3_copy+0x40bffa10>
803003be:	a2 83       	sub %d3,%d8
803003c0:	3f 23 fd ff 	jlt.u %d3,%d2,803003ba <__Core1_start+0x18e>
803003c4:	91 00 03 2a 	movh.a %a2,41008
803003c8:	80 22       	mov.d %d2,%a2
803003ca:	1b 02 22 40 	addi %d4,%d2,544
803003ce:	91 40 88 4f 	movh.a %a4,63620
803003d2:	6d e8 b7 13 	call 80002b40 <Ifx_Ssw_startCore>
803003d6:	91 00 03 28 	movh.a %a2,32816
803003da:	d9 22 3a f0 	lea %a2,[%a2]1018 <803003fa <core1_main>>
803003de:	dc 02       	ji %a2

803003e0 <x>:
803003e0:	fd 00 00 80 	loopu 803003e0 <x>
803003e4:	00 90       	ret 
803003e6:	54 23       	ld.w %d3,[%a2]
803003e8:	06 22       	sh %d2,2
803003ea:	b7 03 10 30 	insert %d3,%d3,0,0,16
803003ee:	a6 23       	or %d3,%d2
803003f0:	8f 13 40 31 	or %d3,%d3,1
803003f4:	74 23       	st.w [%a2],%d3
803003f6:	1d ff 34 ff 	j 8030025e <__Core1_start+0x32>

803003fa <core1_main>:
803003fa:	0d 00 00 03 	enable 
803003fe:	6d e8 ad 0e 	call 80002158 <IfxScuWdt_getCpuWatchdogPassword>
80300402:	02 24       	mov %d4,%d2
80300404:	91 00 00 c7 	movh.a %a12,28672
80300408:	6d e8 27 0e 	call 80002056 <IfxScuWdt_disableCpuWatchdog>
8030040c:	d9 cc 20 d0 	lea %a12,[%a12]864 <70000360 <g_cpuSyncEvent>>
80300410:	40 c4       	mov.aa %a4,%a12
80300412:	6d e8 1b 12 	call 80002848 <IfxCpu_emitEvent>
80300416:	82 14       	mov %d4,1
80300418:	40 c4       	mov.aa %a4,%a12
8030041a:	6d e8 d6 11 	call 800027c6 <IfxCpu_waitEvent>
8030041e:	6d e8 9d 16 	call 80003158 <initLED>
80300422:	6d e8 ad 16 	call 8000317c <blinkLED>
80300426:	6d e8 ab 16 	call 8000317c <blinkLED>
8030042a:	1d ff fc ff 	j 80300422 <core1_main+0x28>

Disassembly of section .CPU2.text:

8030042e <__Core2_start>:
8030042e:	91 30 00 2f 	movh.a %a2,61443
80300432:	d9 22 24 96 	lea %a2,[%a2]25188 <f0036264 <bmhd_3_copy+0x40c34c64>>
80300436:	85 f8 10 01 	ld.w %d8,f0001010 <bmhd_3_copy+0x40bffa10>
8030043a:	54 22       	ld.w %d2,[%a2]
8030043c:	37 02 6e 21 	extr.u %d2,%d2,2,14
80300440:	8f f2 83 21 	xor %d2,%d2,63
80300444:	91 10 00 a5 	movh.a %sp,20481
80300448:	d9 aa 40 85 	lea %sp,[%sp]22016 <50015600 <__USTACK2>>
8030044c:	0d 00 80 04 	dsync 
80300450:	3b 00 98 30 	mov %d3,2432
80300454:	cd 43 e0 0f 	mtcr $psw,%d3
80300458:	54 23       	ld.w %d3,[%a2]
8030045a:	6f 13 be 80 	jnz.t %d3,1,803005d6 <x+0x6>
8030045e:	06 22       	sh %d2,2
80300460:	91 30 00 2f 	movh.a %a2,61443
80300464:	19 24 24 96 	ld.w %d4,[%a2]25188 <f0036264 <bmhd_3_copy+0x40c34c64>>
80300468:	d9 22 24 96 	lea %a2,[%a2]25188 <f0036264 <bmhd_3_copy+0x40c34c64>>
8030046c:	b7 04 10 40 	insert %d4,%d4,0,0,16
80300470:	82 03       	mov %d3,0
80300472:	a6 24       	or %d4,%d2
80300474:	8f 24 40 41 	or %d4,%d4,2
80300478:	74 24       	st.w [%a2],%d4
8030047a:	54 24       	ld.w %d4,[%a2]
8030047c:	cd c3 20 09 	mtcr $pcon0,%d3
80300480:	0d 00 c0 04 	isync 
80300484:	cd 03 04 09 	mtcr $dcon0,%d3
80300488:	0d 00 c0 04 	isync 
8030048c:	91 00 03 38 	movh.a %a3,32816
80300490:	80 33       	mov.d %d3,%a3
80300492:	1b 03 10 30 	addi %d3,%d3,256
80300496:	cd 43 e2 0f 	mtcr $btv,%d3
8030049a:	91 00 06 38 	movh.a %a3,32864
8030049e:	80 33       	mov.d %d3,%a3
803004a0:	1b 03 00 3e 	addi %d3,%d3,-8192
803004a4:	cd 03 e2 0f 	mtcr $biv,%d3
803004a8:	91 10 00 35 	movh.a %a3,20481
803004ac:	80 33       	mov.d %d3,%a3
803004ae:	1b 03 b0 35 	addi %d3,%d3,23296
803004b2:	cd 83 e2 0f 	mtcr $isp,%d3
803004b6:	54 23       	ld.w %d3,[%a2]
803004b8:	6f 13 09 00 	jz.t %d3,1,803004ca <__Core2_start+0x9c>
803004bc:	54 23       	ld.w %d3,[%a2]
803004be:	b7 03 10 30 	insert %d3,%d3,0,0,16
803004c2:	a6 23       	or %d3,%d2
803004c4:	8f 13 40 31 	or %d3,%d3,1
803004c8:	74 23       	st.w [%a2],%d3
803004ca:	91 30 00 2f 	movh.a %a2,61443
803004ce:	19 23 24 96 	ld.w %d3,[%a2]25188 <f0036264 <bmhd_3_copy+0x40c34c64>>
803004d2:	d9 22 24 96 	lea %a2,[%a2]25188 <f0036264 <bmhd_3_copy+0x40c34c64>>
803004d6:	b7 03 10 30 	insert %d3,%d3,0,0,16
803004da:	a6 32       	or %d2,%d3
803004dc:	8f 32 40 21 	or %d2,%d2,3
803004e0:	74 22       	st.w [%a2],%d2
803004e2:	54 22       	ld.w %d2,[%a2]
803004e4:	91 10 00 07 	movh.a %a0,28673
803004e8:	d9 00 00 08 	lea %a0,[%a0]-32768 <70008000 <_SMALL_DATA_>>
803004ec:	91 10 00 18 	movh.a %a1,32769
803004f0:	d9 11 00 08 	lea %a1,[%a1]-32768 <80008000 <_SMALL_DATA2_>>
803004f4:	91 10 00 88 	movh.a %a8,32769
803004f8:	d9 88 00 08 	lea %a8,[%a8]-32768 <80008000 <_SMALL_DATA2_>>
803004fc:	91 10 00 99 	movh.a %a9,36865
80300500:	d9 99 00 08 	lea %a9,[%a9]-32768 <90008000 <_SMALL_DATA4_>>
80300504:	91 10 00 35 	movh.a %a3,20481
80300508:	91 10 00 25 	movh.a %a2,20481
8030050c:	d9 33 c0 05 	lea %a3,[%a3]23552 <50015c00 <__CSA2>>
80300510:	d9 22 c0 07 	lea %a2,[%a2]31744 <50017c00 <__CSA2_END>>
80300514:	01 32 20 20 	sub.a %a2,%a2,%a3
80300518:	80 22       	mov.d %d2,%a2
8030051a:	8f a2 1f 60 	sh %d6,%d2,-6
8030051e:	40 32       	mov.aa %a2,%a3
80300520:	1b d6 ff 0f 	addi %d0,%d6,-3
80300524:	82 03       	mov %d3,0
80300526:	80 32       	mov.d %d2,%a3
80300528:	7b f0 00 70 	movh %d7,15
8030052c:	df 06 2d 00 	jeq %d6,0,80300586 <__Core2_start+0x158>
80300530:	37 02 70 43 	extr.u %d4,%d2,6,16
80300534:	8f 42 1f 50 	sh %d5,%d2,-12
80300538:	26 75       	and %d5,%d7
8030053a:	a6 54       	or %d4,%d5
8030053c:	df 03 14 00 	jeq %d3,0,80300564 <__Core2_start+0x136>
80300540:	74 24       	st.w [%a2],%d4
80300542:	5f 03 15 00 	jeq %d3,%d0,8030056c <__Core2_start+0x13e>
80300546:	c2 13       	add %d3,1
80300548:	60 22       	mov.a %a2,%d2
8030054a:	1b 02 04 40 	addi %d4,%d2,64
8030054e:	5f 36 17 00 	jeq %d6,%d3,8030057c <__Core2_start+0x14e>
80300552:	02 42       	mov %d2,%d4
80300554:	37 02 70 43 	extr.u %d4,%d2,6,16
80300558:	8f 42 1f 50 	sh %d5,%d2,-12
8030055c:	26 75       	and %d5,%d7
8030055e:	a6 54       	or %d4,%d5
80300560:	df 03 f0 ff 	jne %d3,0,80300540 <__Core2_start+0x112>
80300564:	cd 84 e3 0f 	mtcr $fcx,%d4
80300568:	5f 03 ef ff 	jne %d3,%d0,80300546 <__Core2_start+0x118>
8030056c:	cd c4 e3 0f 	mtcr $lcx,%d4
80300570:	c2 13       	add %d3,1
80300572:	60 22       	mov.a %a2,%d2
80300574:	1b 02 04 40 	addi %d4,%d2,64
80300578:	5f 36 ed ff 	jne %d6,%d3,80300552 <__Core2_start+0x124>
8030057c:	1b f6 ff 2f 	addi %d2,%d6,-1
80300580:	06 62       	sh %d2,6
80300582:	01 32 00 26 	addsc.a %a2,%a3,%d2,0
80300586:	82 02       	mov %d2,0
80300588:	74 22       	st.w [%a2],%d2
8030058a:	0d 00 80 04 	dsync 
8030058e:	0d 00 c0 04 	isync 
80300592:	6d e8 ee 12 	call 80002b6e <Ifx_Ssw_getStmFrequency>
80300596:	02 24       	mov %d4,%d2
80300598:	6d e8 13 17 	call 800033be <__extendsfdf2>
8030059c:	0b 23 10 48 	mov %e4,%d3,%d2
803005a0:	7b c0 b1 6e 	movh %d6,60188
803005a4:	7b a0 f1 73 	movh %d7,16154
803005a8:	1b d6 32 64 	addi %d6,%d6,17197
803005ac:	1b 27 6e 73 	addi %d7,%d7,14050
803005b0:	6d e8 6f 18 	call 8000368e <__muldf3>
803005b4:	0b 23 10 48 	mov %e4,%d3,%d2
803005b8:	6d e8 e7 16 	call 80003386 <__fixunsdfsi>
803005bc:	85 f3 10 01 	ld.w %d3,f0001010 <bmhd_3_copy+0x40bffa10>
803005c0:	a2 83       	sub %d3,%d8
803005c2:	3f 23 fd ff 	jlt.u %d3,%d2,803005bc <__Core2_start+0x18e>
803005c6:	91 00 03 28 	movh.a %a2,32816
803005ca:	d9 22 6a 70 	lea %a2,[%a2]1514 <803005ea <core2_main>>
803005ce:	dc 02       	ji %a2

803005d0 <x>:
803005d0:	fd 00 00 80 	loopu 803005d0 <x>
803005d4:	00 90       	ret 
803005d6:	54 23       	ld.w %d3,[%a2]
803005d8:	06 22       	sh %d2,2
803005da:	b7 03 10 30 	insert %d3,%d3,0,0,16
803005de:	a6 23       	or %d3,%d2
803005e0:	8f 13 40 31 	or %d3,%d3,1
803005e4:	74 23       	st.w [%a2],%d3
803005e6:	1d ff 3d ff 	j 80300460 <__Core2_start+0x32>

803005ea <core2_main>:
803005ea:	0d 00 00 03 	enable 
803005ee:	6d e8 b5 0d 	call 80002158 <IfxScuWdt_getCpuWatchdogPassword>
803005f2:	02 24       	mov %d4,%d2
803005f4:	91 00 00 c7 	movh.a %a12,28672
803005f8:	6d e8 2f 0d 	call 80002056 <IfxScuWdt_disableCpuWatchdog>
803005fc:	d9 cc 20 d0 	lea %a12,[%a12]864 <70000360 <g_cpuSyncEvent>>
80300600:	40 c4       	mov.aa %a4,%a12
80300602:	6d e8 23 11 	call 80002848 <IfxCpu_emitEvent>
80300606:	82 14       	mov %d4,1
80300608:	40 c4       	mov.aa %a4,%a12
8030060a:	6d e8 de 10 	call 800027c6 <IfxCpu_waitEvent>
8030060e:	1d 00 00 00 	j 8030060e <core2_main+0x24>

Disassembly of section .text:

80000e58 <deregister_tm_clones>:
80000e58:	7b 00 00 27 	movh %d2,28672
80000e5c:	1b 82 35 20 	addi %d2,%d2,856
80000e60:	91 00 00 47 	movh.a %a4,28672
80000e64:	60 22       	mov.a %a2,%d2
80000e66:	d9 44 18 d0 	lea %a4,[%a4]856 <70000358 <__TMC_END__>>
80000e6a:	7d 42 0a 00 	jeq.a %a2,%a4,80000e7e <deregister_tm_clones+0x26>
80000e6e:	91 00 00 20 	movh.a %a2,0
80000e72:	d9 22 00 00 	lea %a2,[%a2]0 <0 <__TRICORE_DERIVATE_MEMORY_MAP__-0x380>>
80000e76:	bd 02 04 00 	jz.a %a2,80000e7e <deregister_tm_clones+0x26>
80000e7a:	2d 02 00 00 	calli %a2
80000e7e:	00 90       	ret 

80000e80 <register_tm_clones>:
80000e80:	7b 00 00 27 	movh %d2,28672
80000e84:	1b 82 35 20 	addi %d2,%d2,856
80000e88:	91 00 00 47 	movh.a %a4,28672
80000e8c:	60 22       	mov.a %a2,%d2
80000e8e:	d9 44 18 d0 	lea %a4,[%a4]856 <70000358 <__TMC_END__>>
80000e92:	01 42 20 20 	sub.a %a2,%a2,%a4
80000e96:	80 22       	mov.d %d2,%a2
80000e98:	8f e2 3f 30 	sha %d3,%d2,-2
80000e9c:	8f 12 1e 20 	sh %d2,%d2,-31
80000ea0:	42 32       	add %d2,%d3
80000ea2:	8f f2 3f 40 	sha %d4,%d2,-1
80000ea6:	df 04 0a 00 	jeq %d4,0,80000eba <register_tm_clones+0x3a>
80000eaa:	91 00 00 20 	movh.a %a2,0
80000eae:	d9 22 00 00 	lea %a2,[%a2]0 <0 <__TRICORE_DERIVATE_MEMORY_MAP__-0x380>>
80000eb2:	bd 02 04 00 	jz.a %a2,80000eba <register_tm_clones+0x3a>
80000eb6:	2d 02 00 00 	calli %a2
80000eba:	00 90       	ret 

80000ebc <__do_global_dtors_aux>:
80000ebc:	91 00 00 e7 	movh.a %a14,28672
80000ec0:	39 e2 18 d0 	ld.bu %d2,[%a14]856 <70000358 <__TMC_END__>>
80000ec4:	df 02 2d 80 	jne %d2,0,80000f1e <__do_global_dtors_aux+0x62>
80000ec8:	91 00 00 38 	movh.a %a3,32768
80000ecc:	91 00 00 28 	movh.a %a2,32768
80000ed0:	d9 33 c0 63 	lea %a3,[%a3]15744 <80003d80 <__DTOR_END__>>
80000ed4:	d9 22 f4 53 	lea %a2,[%a2]15732 <80003d74 <__DTOR_LIST__>>
80000ed8:	01 23 20 20 	sub.a %a2,%a3,%a2
80000edc:	80 22       	mov.d %d2,%a2
80000ede:	86 e2       	sha %d2,-2
80000ee0:	1b f2 ff 8f 	addi %d8,%d2,-1
80000ee4:	91 00 00 c7 	movh.a %a12,28672
80000ee8:	7b 00 00 28 	movh %d2,32768
80000eec:	1b 42 d7 23 	addi %d2,%d2,15732
80000ef0:	60 2d       	mov.a %a13,%d2
80000ef2:	19 c2 1c d0 	ld.w %d2,[%a12]860 <7000035c <dtor_idx.0>>
80000ef6:	7f 82 0f 80 	jge.u %d2,%d8,80000f14 <__do_global_dtors_aux+0x58>
80000efa:	d9 cc 1c d0 	lea %a12,[%a12]860 <7000035c <dtor_idx.0>>
80000efe:	c2 12       	add %d2,1
80000f00:	74 c2       	st.w [%a12],%d2
80000f02:	06 22       	sh %d2,2
80000f04:	01 d2 00 26 	addsc.a %a2,%a13,%d2,0
80000f08:	d4 22       	ld.a %a2,[%a2]
80000f0a:	2d 02 00 00 	calli %a2
80000f0e:	54 c2       	ld.w %d2,[%a12]
80000f10:	3f 82 f7 ff 	jlt.u %d2,%d8,80000efe <__do_global_dtors_aux+0x42>
80000f14:	6d ff a2 ff 	call 80000e58 <deregister_tm_clones>
80000f18:	82 12       	mov %d2,1
80000f1a:	e9 e2 18 d0 	st.b [%a14]856 <70000358 <__TMC_END__>>,%d2
80000f1e:	00 90       	ret 

80000f20 <frame_dummy>:
80000f20:	6d ff b0 ff 	call 80000e80 <register_tm_clones>
80000f24:	00 90       	ret 

80000f26 <IfxGtm_PinMap_setTomTout>:
80000f26:	19 43 0c 00 	ld.w %d3,[%a4]12
80000f2a:	02 58       	mov %d8,%d5
80000f2c:	7b a0 01 5f 	movh %d5,61466
80000f30:	1b 05 d6 5f 	addi %d5,%d5,-672
80000f34:	60 52       	mov.a %a2,%d5
80000f36:	8f 73 00 21 	and %d2,%d3,7
80000f3a:	06 d3       	sh %d3,-3
80000f3c:	06 23       	sh %d3,2
80000f3e:	01 23 00 26 	addsc.a %a2,%a2,%d3,0
80000f42:	19 45 08 00 	ld.w %d5,[%a4]8
80000f46:	54 23       	ld.w %d3,[%a2]
80000f48:	06 22       	sh %d2,2
80000f4a:	3b f0 00 60 	mov %d6,15
80000f4e:	0f 25 00 50 	sh %d5,%d5,%d2
80000f52:	c6 35       	xor %d5,%d3
80000f54:	0f 26 00 20 	sh %d2,%d6,%d2
80000f58:	26 52       	and %d2,%d5
80000f5a:	c6 32       	xor %d2,%d3
80000f5c:	19 45 18 00 	ld.w %d5,[%a4]24
80000f60:	40 4c       	mov.aa %a12,%a4
80000f62:	74 22       	st.w [%a2],%d2
80000f64:	a6 45       	or %d5,%d4
80000f66:	39 44 14 00 	ld.bu %d4,[%a4]20
80000f6a:	99 44 10 00 	ld.a %a4,[%a4]16
80000f6e:	6d 00 56 09 	call 8000221a <IfxPort_setPinMode>
80000f72:	99 c4 10 00 	ld.a %a4,[%a12]16
80000f76:	39 c4 14 00 	ld.bu %d4,[%a12]20
80000f7a:	02 85       	mov %d5,%d8
80000f7c:	6d 00 81 09 	call 8000227e <IfxPort_setPinPadDriver>
80000f80:	00 90       	ret 

80000f82 <IfxScuCcu_getPerPllFrequency2>:
80000f82:	91 30 00 2f 	movh.a %a2,61443
80000f86:	19 23 18 06 	ld.w %d3,[%a2]24600 <f0036018 <bmhd_3_copy+0x40c34a18>>
80000f8a:	7b f0 cb 24 	movh %d2,19647
80000f8e:	8f 23 1e 30 	sh %d3,%d3,-30
80000f92:	d9 22 18 06 	lea %a2,[%a2]24600 <f0036018 <bmhd_3_copy+0x40c34a18>>
80000f96:	1b 02 c2 2b 	addi %d2,%d2,-17376
80000f9a:	df 03 11 00 	jeq %d3,0,80000fbc <IfxScuCcu_getPerPllFrequency2+0x3a>
80000f9e:	54 23       	ld.w %d3,[%a2]
80000fa0:	7b 90 b9 24 	movh %d2,19353
80000fa4:	8f 23 1e 30 	sh %d3,%d3,-30
80000fa8:	1b 02 68 29 	addi %d2,%d2,-27008
80000fac:	df 13 08 00 	jeq %d3,1,80000fbc <IfxScuCcu_getPerPllFrequency2+0x3a>
80000fb0:	54 23       	ld.w %d3,[%a2]
80000fb2:	8f 23 1e 30 	sh %d3,%d3,-30
80000fb6:	df 23 03 00 	jeq %d3,2,80000fbc <IfxScuCcu_getPerPllFrequency2+0x3a>
80000fba:	82 02       	mov %d2,0
80000fbc:	91 30 00 2f 	movh.a %a2,61443
80000fc0:	19 23 28 06 	ld.w %d3,[%a2]24616 <f0036028 <bmhd_3_copy+0x40c34a28>>
80000fc4:	d9 22 00 06 	lea %a2,[%a2]24576 <f0036000 <bmhd_3_copy+0x40c34a00>>
80000fc8:	d9 23 28 00 	lea %a3,[%a2]40 <f0030028 <bmhd_3_copy+0x40c2ea28>>
80000fcc:	6f 03 20 80 	jnz.t %d3,0,8000100c <IfxScuCcu_getPerPllFrequency2+0x8a>
80000fd0:	54 33       	ld.w %d3,[%a3]
80000fd2:	54 34       	ld.w %d4,[%a3]
80000fd4:	37 03 e7 34 	extr.u %d3,%d3,9,7
80000fd8:	19 25 2c 00 	ld.w %d5,[%a2]44 <f003002c <bmhd_3_copy+0x40c2ea2c>>
80000fdc:	c2 13       	add %d3,1
80000fde:	37 05 63 54 	extr.u %d5,%d5,8,3
80000fe2:	4b 03 41 31 	itof %d3,%d3
80000fe6:	37 04 63 4c 	extr.u %d4,%d4,24,3
80000fea:	4b 23 41 30 	mul.f %d3,%d3,%d2
80000fee:	1b 15 00 20 	addi %d2,%d5,1
80000ff2:	03 24 0a 22 	madd %d2,%d2,%d4,%d2
80000ff6:	4b 02 41 41 	itof %d4,%d2
80000ffa:	7b d0 fc 23 	movh %d2,16333
80000ffe:	1b d2 cc 2c 	addi %d2,%d2,-13107
80001002:	4b 24 41 20 	mul.f %d2,%d4,%d2
80001006:	4b 23 51 20 	div.f %d2,%d3,%d2
8000100a:	00 90       	ret 
8000100c:	19 23 28 00 	ld.w %d3,[%a2]40
80001010:	19 24 28 00 	ld.w %d4,[%a2]40
80001014:	37 03 e7 34 	extr.u %d3,%d3,9,7
80001018:	19 25 2c 00 	ld.w %d5,[%a2]44
8000101c:	c2 13       	add %d3,1
8000101e:	37 05 63 54 	extr.u %d5,%d5,8,3
80001022:	4b 03 41 31 	itof %d3,%d3
80001026:	37 04 63 4c 	extr.u %d4,%d4,24,3
8000102a:	4b 23 41 30 	mul.f %d3,%d3,%d2
8000102e:	1b 15 00 20 	addi %d2,%d5,1
80001032:	03 24 0a 22 	madd %d2,%d2,%d4,%d2
80001036:	d9 23 28 00 	lea %a3,[%a2]40
8000103a:	06 12       	sh %d2,1
8000103c:	4b 02 41 21 	itof %d2,%d2
80001040:	4b 23 51 20 	div.f %d2,%d3,%d2
80001044:	00 90       	ret 

80001046 <IfxScuCcu_getSourceFrequency>:
80001046:	91 30 00 2f 	movh.a %a2,61443
8000104a:	19 23 30 06 	ld.w %d3,[%a2]24624 <f0036030 <bmhd_3_copy+0x40c34a30>>
8000104e:	7b f0 cb 24 	movh %d2,19647
80001052:	37 03 62 3e 	extr.u %d3,%d3,28,2
80001056:	d9 22 30 06 	lea %a2,[%a2]24624 <f0036030 <bmhd_3_copy+0x40c34a30>>
8000105a:	1b 02 c2 2b 	addi %d2,%d2,-17376
8000105e:	df 03 0b 00 	jeq %d3,0,80001074 <IfxScuCcu_getSourceFrequency+0x2e>
80001062:	82 02       	mov %d2,0
80001064:	df 13 08 80 	jne %d3,1,80001074 <IfxScuCcu_getSourceFrequency+0x2e>
80001068:	df 14 42 00 	jeq %d4,1,800010ec <IfxScuCcu_getSourceFrequency+0xa6>
8000106c:	df 24 88 00 	jeq %d4,2,8000117c <IfxScuCcu_getSourceFrequency+0x136>
80001070:	df 04 03 00 	jeq %d4,0,80001076 <IfxScuCcu_getSourceFrequency+0x30>
80001074:	00 90       	ret 
80001076:	91 30 00 2f 	movh.a %a2,61443
8000107a:	19 24 18 06 	ld.w %d4,[%a2]24600 <f0036018 <bmhd_3_copy+0x40c34a18>>
8000107e:	7b f0 cb 34 	movh %d3,19647
80001082:	8f 24 1e 40 	sh %d4,%d4,-30
80001086:	d9 22 18 06 	lea %a2,[%a2]24600 <f0036018 <bmhd_3_copy+0x40c34a18>>
8000108a:	1b 03 c2 3b 	addi %d3,%d3,-17376
8000108e:	df 04 11 00 	jeq %d4,0,800010b0 <IfxScuCcu_getSourceFrequency+0x6a>
80001092:	54 24       	ld.w %d4,[%a2]
80001094:	7b 90 b9 34 	movh %d3,19353
80001098:	8f 24 1e 40 	sh %d4,%d4,-30
8000109c:	1b 03 68 39 	addi %d3,%d3,-27008
800010a0:	df 14 08 00 	jeq %d4,1,800010b0 <IfxScuCcu_getSourceFrequency+0x6a>
800010a4:	54 24       	ld.w %d4,[%a2]
800010a6:	8f 24 1e 40 	sh %d4,%d4,-30
800010aa:	df 24 03 00 	jeq %d4,2,800010b0 <IfxScuCcu_getSourceFrequency+0x6a>
800010ae:	02 23       	mov %d3,%d2
800010b0:	91 30 00 2f 	movh.a %a2,61443
800010b4:	19 22 18 06 	ld.w %d2,[%a2]24600 <f0036018 <bmhd_3_copy+0x40c34a18>>
800010b8:	19 24 1c 06 	ld.w %d4,[%a2]24604 <f003601c <bmhd_3_copy+0x40c34a1c>>
800010bc:	37 02 e7 24 	extr.u %d2,%d2,9,7
800010c0:	19 25 18 06 	ld.w %d5,[%a2]24600 <f0036018 <bmhd_3_copy+0x40c34a18>>
800010c4:	c2 12       	add %d2,1
800010c6:	4b 02 41 21 	itof %d2,%d2
800010ca:	37 05 63 5c 	extr.u %d5,%d5,24,3
800010ce:	4b 32 41 30 	mul.f %d3,%d2,%d3
800010d2:	8f 74 00 41 	and %d4,%d4,7
800010d6:	1b 15 00 20 	addi %d2,%d5,1
800010da:	03 24 0a 22 	madd %d2,%d2,%d4,%d2
800010de:	d9 22 00 06 	lea %a2,[%a2]24576 <f0036000 <bmhd_3_copy+0x40c34a00>>
800010e2:	4b 02 41 21 	itof %d2,%d2
800010e6:	4b 23 51 20 	div.f %d2,%d3,%d2
800010ea:	00 90       	ret 
800010ec:	91 30 00 2f 	movh.a %a2,61443
800010f0:	19 24 18 06 	ld.w %d4,[%a2]24600 <f0036018 <bmhd_3_copy+0x40c34a18>>
800010f4:	7b f0 cb 34 	movh %d3,19647
800010f8:	8f 24 1e 40 	sh %d4,%d4,-30
800010fc:	d9 22 18 06 	lea %a2,[%a2]24600 <f0036018 <bmhd_3_copy+0x40c34a18>>
80001100:	1b 03 c2 3b 	addi %d3,%d3,-17376
80001104:	df 04 11 00 	jeq %d4,0,80001126 <IfxScuCcu_getSourceFrequency+0xe0>
80001108:	54 24       	ld.w %d4,[%a2]
8000110a:	7b 90 b9 34 	movh %d3,19353
8000110e:	8f 24 1e 40 	sh %d4,%d4,-30
80001112:	1b 03 68 39 	addi %d3,%d3,-27008
80001116:	df 14 08 00 	jeq %d4,1,80001126 <IfxScuCcu_getSourceFrequency+0xe0>
8000111a:	54 24       	ld.w %d4,[%a2]
8000111c:	8f 24 1e 40 	sh %d4,%d4,-30
80001120:	df 24 03 00 	jeq %d4,2,80001126 <IfxScuCcu_getSourceFrequency+0xe0>
80001124:	02 23       	mov %d3,%d2
80001126:	91 30 00 2f 	movh.a %a2,61443
8000112a:	19 22 28 06 	ld.w %d2,[%a2]24616 <f0036028 <bmhd_3_copy+0x40c34a28>>
8000112e:	d9 22 00 06 	lea %a2,[%a2]24576 <f0036000 <bmhd_3_copy+0x40c34a00>>
80001132:	37 02 e7 24 	extr.u %d2,%d2,9,7
80001136:	19 24 28 00 	ld.w %d4,[%a2]40 <f0030028 <bmhd_3_copy+0x40c2ea28>>
8000113a:	c2 12       	add %d2,1
8000113c:	19 25 2c 00 	ld.w %d5,[%a2]44 <f003002c <bmhd_3_copy+0x40c2ea2c>>
80001140:	4b 02 41 21 	itof %d2,%d2
80001144:	37 04 63 4c 	extr.u %d4,%d4,24,3
80001148:	8f 75 00 51 	and %d5,%d5,7
8000114c:	4b 32 41 30 	mul.f %d3,%d2,%d3
80001150:	1b 15 00 20 	addi %d2,%d5,1
80001154:	03 24 0a 22 	madd %d2,%d2,%d4,%d2
80001158:	d9 23 28 00 	lea %a3,[%a2]40 <f0030028 <bmhd_3_copy+0x40c2ea28>>
8000115c:	91 30 00 2f 	movh.a %a2,61443
80001160:	4b 02 41 21 	itof %d2,%d2
80001164:	d9 22 34 06 	lea %a2,[%a2]24628 <f0036034 <bmhd_3_copy+0x40c34a34>>
80001168:	4b 23 51 20 	div.f %d2,%d3,%d2
8000116c:	54 23       	ld.w %d3,[%a2]
8000116e:	6f 73 83 ff 	jnz.t %d3,7,80001074 <IfxScuCcu_getSourceFrequency+0x2e>
80001172:	7b 00 f0 33 	movh %d3,16128
80001176:	4b 32 41 20 	mul.f %d2,%d2,%d3
8000117a:	00 90       	ret 
8000117c:	6d ff 03 ff 	call 80000f82 <IfxScuCcu_getPerPllFrequency2>
80001180:	00 90       	ret 

80001182 <IfxScuCcu_modulation_init>:
80001182:	54 42       	ld.w %d2,[%a4]
80001184:	df 12 03 00 	jeq %d2,1,8000118a <IfxScuCcu_modulation_init+0x8>
80001188:	00 90       	ret 
8000118a:	19 42 04 00 	ld.w %d2,[%a4]4
8000118e:	91 00 00 28 	movh.a %a2,32768
80001192:	06 22       	sh %d2,2
80001194:	d9 22 70 70 	lea %a2,[%a2]1520 <800005f0 <IfxScuCcu_MA_percent>>
80001198:	01 22 00 26 	addsc.a %a2,%a2,%d2,0
8000119c:	7b f0 cb 94 	movh %d9,19647
800011a0:	54 2a       	ld.w %d10,[%a2]
800011a2:	91 30 00 2f 	movh.a %a2,61443
800011a6:	19 22 18 06 	ld.w %d2,[%a2]24600 <f0036018 <bmhd_3_copy+0x40c34a18>>
800011aa:	d9 22 18 06 	lea %a2,[%a2]24600 <f0036018 <bmhd_3_copy+0x40c34a18>>
800011ae:	8f 22 1e 20 	sh %d2,%d2,-30
800011b2:	1b 09 c2 9b 	addi %d9,%d9,-17376
800011b6:	df 02 11 00 	jeq %d2,0,800011d8 <IfxScuCcu_modulation_init+0x56>
800011ba:	54 22       	ld.w %d2,[%a2]
800011bc:	7b 90 b9 94 	movh %d9,19353
800011c0:	8f 22 1e 20 	sh %d2,%d2,-30
800011c4:	1b 09 68 99 	addi %d9,%d9,-27008
800011c8:	df 12 08 00 	jeq %d2,1,800011d8 <IfxScuCcu_modulation_init+0x56>
800011cc:	54 22       	ld.w %d2,[%a2]
800011ce:	8f 22 1e 20 	sh %d2,%d2,-30
800011d2:	df 22 03 00 	jeq %d2,2,800011d8 <IfxScuCcu_modulation_init+0x56>
800011d6:	82 09       	mov %d9,0
800011d8:	91 30 00 2f 	movh.a %a2,61443
800011dc:	d9 22 00 06 	lea %a2,[%a2]24576 <f0036000 <bmhd_3_copy+0x40c34a00>>
800011e0:	d9 23 18 00 	lea %a3,[%a2]24 <f0030018 <bmhd_3_copy+0x40c2ea18>>
800011e4:	19 2c 18 00 	ld.w %d12,[%a2]24 <f0030018 <bmhd_3_copy+0x40c2ea18>>
800011e8:	54 3b       	ld.w %d11,[%a3]
800011ea:	6d 00 c8 07 	call 8000217a <IfxScuWdt_getSafetyWatchdogPassword>
800011ee:	02 24       	mov %d4,%d2
800011f0:	37 0c e7 c4 	extr.u %d12,%d12,9,7
800011f4:	02 28       	mov %d8,%d2
800011f6:	6d 00 0e 07 	call 80002012 <IfxScuWdt_clearSafetyEndinit>
800011fa:	1b 1c 00 20 	addi %d2,%d12,1
800011fe:	4b 02 41 21 	itof %d2,%d2
80001202:	37 0b 63 bc 	extr.u %d11,%d11,24,3
80001206:	4b 92 41 30 	mul.f %d3,%d2,%d9
8000120a:	1b 1b 00 20 	addi %d2,%d11,1
8000120e:	4b 02 41 21 	itof %d2,%d2
80001212:	91 30 00 2f 	movh.a %a2,61443
80001216:	4b 23 51 30 	div.f %d3,%d3,%d2
8000121a:	7b c0 a5 24 	movh %d2,19036
8000121e:	1b 02 a0 2b 	addi %d2,%d2,-17920
80001222:	4b 23 51 30 	div.f %d3,%d3,%d2
80001226:	7b 80 2c 24 	movh %d2,17096
8000122a:	4b 2a 51 20 	div.f %d2,%d10,%d2
8000122e:	19 24 20 06 	ld.w %d4,[%a2]24608 <f0036020 <bmhd_3_copy+0x40c34a20>>
80001232:	d9 22 20 06 	lea %a2,[%a2]24608 <f0036020 <bmhd_3_copy+0x40c34a20>>
80001236:	6b 02 21 22 	add.f %d2,%d2,%d2
8000123a:	4b 23 41 30 	mul.f %d3,%d3,%d2
8000123e:	7b 00 20 24 	movh %d2,16896
80001242:	4b 23 41 30 	mul.f %d3,%d3,%d2
80001246:	7b 00 f0 23 	movh %d2,16128
8000124a:	6b 02 21 23 	add.f %d2,%d3,%d2
8000124e:	3b 00 40 3f 	mov %d3,-3072
80001252:	4b 02 71 21 	ftouz %d2,%d2
80001256:	a6 32       	or %d2,%d3
80001258:	37 24 10 20 	insert %d2,%d4,%d2,0,16
8000125c:	02 84       	mov %d4,%d8
8000125e:	74 22       	st.w [%a2],%d2
80001260:	91 30 00 2f 	movh.a %a2,61443
80001264:	19 22 18 06 	ld.w %d2,[%a2]24600 <f0036018 <bmhd_3_copy+0x40c34a18>>
80001268:	d9 22 18 06 	lea %a2,[%a2]24600 <f0036018 <bmhd_3_copy+0x40c34a18>>
8000126c:	b7 12 01 21 	insert %d2,%d2,1,2,1
80001270:	74 22       	st.w [%a2],%d2
80001272:	6d 00 b2 07 	call 800021d6 <IfxScuWdt_setSafetyEndinit>
80001276:	00 90       	ret 

80001278 <IfxScuCcu_init>:
80001278:	91 30 00 2f 	movh.a %a2,61443
8000127c:	19 22 28 a6 	ld.w %d2,[%a2]25256 <f00362a8 <bmhd_3_copy+0x40c34ca8>>
80001280:	19 23 28 a6 	ld.w %d3,[%a2]25256 <f00362a8 <bmhd_3_copy+0x40c34ca8>>
80001284:	37 02 6e 21 	extr.u %d2,%d2,2,14
80001288:	d9 22 28 a6 	lea %a2,[%a2]25256 <f00362a8 <bmhd_3_copy+0x40c34ca8>>
8000128c:	8f f2 83 41 	xor %d4,%d2,63
80001290:	40 4c       	mov.aa %a12,%a4
80001292:	06 24       	sh %d4,2
80001294:	6f 13 09 00 	jz.t %d3,1,800012a6 <IfxScuCcu_init+0x2e>
80001298:	54 22       	ld.w %d2,[%a2]
8000129a:	b7 02 10 20 	insert %d2,%d2,0,0,16
8000129e:	a6 42       	or %d2,%d4
800012a0:	8f 12 40 21 	or %d2,%d2,1
800012a4:	74 22       	st.w [%a2],%d2
800012a6:	91 30 00 2f 	movh.a %a2,61443
800012aa:	19 22 28 a6 	ld.w %d2,[%a2]25256 <f00362a8 <bmhd_3_copy+0x40c34ca8>>
800012ae:	d9 22 28 a6 	lea %a2,[%a2]25256 <f00362a8 <bmhd_3_copy+0x40c34ca8>>
800012b2:	b7 02 10 20 	insert %d2,%d2,0,0,16
800012b6:	a6 42       	or %d2,%d4
800012b8:	8f 22 40 21 	or %d2,%d2,2
800012bc:	74 22       	st.w [%a2],%d2
800012be:	54 22       	ld.w %d2,[%a2]
800012c0:	6f 02 ff ff 	jnz.t %d2,0,800012be <IfxScuCcu_init+0x46>
800012c4:	91 30 00 2f 	movh.a %a2,61443
800012c8:	3b 00 00 31 	mov %d3,4096
800012cc:	d9 22 30 06 	lea %a2,[%a2]24624 <f0036030 <bmhd_3_copy+0x40c34a30>>
800012d0:	54 22       	ld.w %d2,[%a2]
800012d2:	ff 02 1d 00 	jge %d2,0,8000130c <IfxScuCcu_init+0x94>
800012d6:	54 22       	ld.w %d2,[%a2]
800012d8:	ff 02 1a 00 	jge %d2,0,8000130c <IfxScuCcu_init+0x94>
800012dc:	54 22       	ld.w %d2,[%a2]
800012de:	ff 02 17 00 	jge %d2,0,8000130c <IfxScuCcu_init+0x94>
800012e2:	54 22       	ld.w %d2,[%a2]
800012e4:	ff 02 14 00 	jge %d2,0,8000130c <IfxScuCcu_init+0x94>
800012e8:	54 22       	ld.w %d2,[%a2]
800012ea:	ff 02 11 00 	jge %d2,0,8000130c <IfxScuCcu_init+0x94>
800012ee:	54 22       	ld.w %d2,[%a2]
800012f0:	ff 02 0e 00 	jge %d2,0,8000130c <IfxScuCcu_init+0x94>
800012f4:	54 22       	ld.w %d2,[%a2]
800012f6:	ff 02 0b 00 	jge %d2,0,8000130c <IfxScuCcu_init+0x94>
800012fa:	54 22       	ld.w %d2,[%a2]
800012fc:	ff 02 08 00 	jge %d2,0,8000130c <IfxScuCcu_init+0x94>
80001300:	c2 83       	add %d3,-8
80001302:	df 03 e7 ff 	jne %d3,0,800012d0 <IfxScuCcu_init+0x58>
80001306:	82 18       	mov %d8,1
80001308:	1d 00 03 00 	j 8000130e <IfxScuCcu_init+0x96>
8000130c:	82 08       	mov %d8,0
8000130e:	91 30 00 2f 	movh.a %a2,61443
80001312:	19 23 30 06 	ld.w %d3,[%a2]24624 <f0036030 <bmhd_3_copy+0x40c34a30>>
80001316:	d9 22 30 06 	lea %a2,[%a2]24624 <f0036030 <bmhd_3_copy+0x40c34a30>>
8000131a:	37 03 68 2c 	extr.u %d2,%d3,24,8
8000131e:	b7 42 03 22 	insert %d2,%d2,4,4,3
80001322:	37 23 08 3c 	insert %d3,%d3,%d2,24,8
80001326:	3b 00 00 21 	mov %d2,4096
8000132a:	74 23       	st.w [%a2],%d3
8000132c:	54 23       	ld.w %d3,[%a2]
8000132e:	ff 03 1b 00 	jge %d3,0,80001364 <IfxScuCcu_init+0xec>
80001332:	54 23       	ld.w %d3,[%a2]
80001334:	ff 03 18 00 	jge %d3,0,80001364 <IfxScuCcu_init+0xec>
80001338:	54 23       	ld.w %d3,[%a2]
8000133a:	ff 03 15 00 	jge %d3,0,80001364 <IfxScuCcu_init+0xec>
8000133e:	54 23       	ld.w %d3,[%a2]
80001340:	ff 03 12 00 	jge %d3,0,80001364 <IfxScuCcu_init+0xec>
80001344:	54 23       	ld.w %d3,[%a2]
80001346:	ff 03 0f 00 	jge %d3,0,80001364 <IfxScuCcu_init+0xec>
8000134a:	54 23       	ld.w %d3,[%a2]
8000134c:	ff 03 0c 00 	jge %d3,0,80001364 <IfxScuCcu_init+0xec>
80001350:	54 23       	ld.w %d3,[%a2]
80001352:	ff 03 09 00 	jge %d3,0,80001364 <IfxScuCcu_init+0xec>
80001356:	54 23       	ld.w %d3,[%a2]
80001358:	ff 03 06 00 	jge %d3,0,80001364 <IfxScuCcu_init+0xec>
8000135c:	c2 82       	add %d2,-8
8000135e:	df 02 e7 ff 	jne %d2,0,8000132c <IfxScuCcu_init+0xb4>
80001362:	82 18       	mov %d8,1
80001364:	3b c0 0b 20 	mov %d2,188
80001368:	91 30 00 2f 	movh.a %a2,61443
8000136c:	91 30 00 3f 	movh.a %a3,61443
80001370:	59 22 b4 06 	st.w [%a2]26676 <f0036834 <bmhd_3_copy+0x40c35234>>,%d2
80001374:	19 32 a0 56 	ld.w %d2,[%a3]26976 <f0036960 <bmhd_3_copy+0x40c35360>>
80001378:	d9 33 a0 56 	lea %a3,[%a3]26976 <f0036960 <bmhd_3_copy+0x40c35360>>
8000137c:	8f d2 c1 21 	andn %d2,%d2,29
80001380:	d9 22 b4 06 	lea %a2,[%a2]26676 <f0036834 <bmhd_3_copy+0x40c35234>>
80001384:	3b 00 00 53 	mov %d5,12288
80001388:	74 32       	st.w [%a3],%d2
8000138a:	91 30 00 3f 	movh.a %a3,61443
8000138e:	19 32 a4 56 	ld.w %d2,[%a3]26980 <f0036964 <bmhd_3_copy+0x40c35364>>
80001392:	d9 33 a4 56 	lea %a3,[%a3]26980 <f0036964 <bmhd_3_copy+0x40c35364>>
80001396:	8f d2 c1 21 	andn %d2,%d2,29
8000139a:	74 32       	st.w [%a3],%d2
8000139c:	91 30 00 3f 	movh.a %a3,61443
800013a0:	19 32 a8 56 	ld.w %d2,[%a3]26984 <f0036968 <bmhd_3_copy+0x40c35368>>
800013a4:	d9 33 a8 56 	lea %a3,[%a3]26984 <f0036968 <bmhd_3_copy+0x40c35368>>
800013a8:	8f d2 c1 21 	andn %d2,%d2,29
800013ac:	74 32       	st.w [%a3],%d2
800013ae:	82 02       	mov %d2,0
800013b0:	91 30 00 3f 	movh.a %a3,61443
800013b4:	d9 33 24 06 	lea %a3,[%a3]24612 <f0036024 <bmhd_3_copy+0x40c34a24>>
800013b8:	74 22       	st.w [%a2],%d2
800013ba:	91 30 00 2f 	movh.a %a2,61443
800013be:	19 22 18 06 	ld.w %d2,[%a2]24600 <f0036018 <bmhd_3_copy+0x40c34a18>>
800013c2:	d9 22 18 06 	lea %a2,[%a2]24600 <f0036018 <bmhd_3_copy+0x40c34a18>>
800013c6:	b7 02 01 28 	insert %d2,%d2,0,16,1
800013ca:	74 22       	st.w [%a2],%d2
800013cc:	91 30 00 2f 	movh.a %a2,61443
800013d0:	19 22 28 06 	ld.w %d2,[%a2]24616 <f0036028 <bmhd_3_copy+0x40c34a28>>
800013d4:	d9 22 28 06 	lea %a2,[%a2]24616 <f0036028 <bmhd_3_copy+0x40c34a28>>
800013d8:	b7 02 01 28 	insert %d2,%d2,0,16,1
800013dc:	74 22       	st.w [%a2],%d2
800013de:	91 30 00 2f 	movh.a %a2,61443
800013e2:	d9 22 14 06 	lea %a2,[%a2]24596 <f0036014 <bmhd_3_copy+0x40c34a14>>
800013e6:	54 23       	ld.w %d3,[%a2]
800013e8:	6f 13 05 00 	jz.t %d3,1,800013f2 <IfxScuCcu_init+0x17a>
800013ec:	54 33       	ld.w %d3,[%a3]
800013ee:	6f 13 33 80 	jnz.t %d3,1,80001454 <IfxScuCcu_init+0x1dc>
800013f2:	54 23       	ld.w %d3,[%a2]
800013f4:	1b f5 ff 2f 	addi %d2,%d5,-1
800013f8:	6f 13 05 00 	jz.t %d3,1,80001402 <IfxScuCcu_init+0x18a>
800013fc:	54 33       	ld.w %d3,[%a3]
800013fe:	6f 13 2b 80 	jnz.t %d3,1,80001454 <IfxScuCcu_init+0x1dc>
80001402:	54 23       	ld.w %d3,[%a2]
80001404:	6f 13 05 00 	jz.t %d3,1,8000140e <IfxScuCcu_init+0x196>
80001408:	54 33       	ld.w %d3,[%a3]
8000140a:	6f 13 25 80 	jnz.t %d3,1,80001454 <IfxScuCcu_init+0x1dc>
8000140e:	54 23       	ld.w %d3,[%a2]
80001410:	6f 13 05 00 	jz.t %d3,1,8000141a <IfxScuCcu_init+0x1a2>
80001414:	54 33       	ld.w %d3,[%a3]
80001416:	6f 13 1f 80 	jnz.t %d3,1,80001454 <IfxScuCcu_init+0x1dc>
8000141a:	54 23       	ld.w %d3,[%a2]
8000141c:	6f 13 05 00 	jz.t %d3,1,80001426 <IfxScuCcu_init+0x1ae>
80001420:	54 33       	ld.w %d3,[%a3]
80001422:	6f 13 19 80 	jnz.t %d3,1,80001454 <IfxScuCcu_init+0x1dc>
80001426:	54 23       	ld.w %d3,[%a2]
80001428:	6f 13 05 00 	jz.t %d3,1,80001432 <IfxScuCcu_init+0x1ba>
8000142c:	54 33       	ld.w %d3,[%a3]
8000142e:	6f 13 13 80 	jnz.t %d3,1,80001454 <IfxScuCcu_init+0x1dc>
80001432:	54 23       	ld.w %d3,[%a2]
80001434:	6f 13 05 00 	jz.t %d3,1,8000143e <IfxScuCcu_init+0x1c6>
80001438:	54 33       	ld.w %d3,[%a3]
8000143a:	6f 13 0d 80 	jnz.t %d3,1,80001454 <IfxScuCcu_init+0x1dc>
8000143e:	54 23       	ld.w %d3,[%a2]
80001440:	6f 13 05 00 	jz.t %d3,1,8000144a <IfxScuCcu_init+0x1d2>
80001444:	54 33       	ld.w %d3,[%a3]
80001446:	6f 13 07 80 	jnz.t %d3,1,80001454 <IfxScuCcu_init+0x1dc>
8000144a:	1b 92 ff 5f 	addi %d5,%d2,-7
8000144e:	df 72 cc ff 	jne %d2,7,800013e6 <IfxScuCcu_init+0x16e>
80001452:	82 18       	mov %d8,1
80001454:	19 c5 04 00 	ld.w %d5,[%a12]4
80001458:	1b f5 ff 2f 	addi %d2,%d5,-1
8000145c:	ff 22 1e 80 	jge.u %d2,2,80001498 <IfxScuCcu_init+0x220>
80001460:	54 c3       	ld.w %d3,[%a12]
80001462:	7b c0 31 24 	movh %d2,17180
80001466:	1b 32 e8 2d 	addi %d2,%d2,-8573
8000146a:	73 23 68 20 	mul.u %e2,%d3,%d2
8000146e:	91 30 00 2f 	movh.a %a2,61443
80001472:	19 26 10 06 	ld.w %d6,[%a2]24592 <f0036010 <bmhd_3_copy+0x40c34a10>>
80001476:	8f e3 1e 20 	sh %d2,%d3,-18
8000147a:	1b 12 ff 2f 	addi %d2,%d2,-15
8000147e:	8f f2 01 21 	and %d2,%d2,31
80001482:	8f 02 01 30 	sh %d3,%d2,16
80001486:	7b 10 fe 2f 	movh %d2,65505
8000148a:	1b f2 f9 2f 	addi %d2,%d2,-97
8000148e:	26 62       	and %d2,%d6
80001490:	a6 32       	or %d2,%d3
80001492:	d9 22 10 06 	lea %a2,[%a2]24592 <f0036010 <bmhd_3_copy+0x40c34a10>>
80001496:	74 22       	st.w [%a2],%d2
80001498:	39 c2 08 00 	ld.bu %d2,[%a12]8 <f0036010 <bmhd_3_copy+0x40c34a10>>
8000149c:	91 30 00 3f 	movh.a %a3,61443
800014a0:	8f 72 00 21 	and %d2,%d2,7
800014a4:	8f 82 01 30 	sh %d3,%d2,24
800014a8:	39 c2 09 00 	ld.bu %d2,[%a12]9
800014ac:	19 36 18 06 	ld.w %d6,[%a3]24600 <f0036018 <bmhd_3_copy+0x40c34a18>>
800014b0:	8f f2 07 21 	and %d2,%d2,127
800014b4:	8f 92 00 20 	sh %d2,%d2,9
800014b8:	a6 23       	or %d3,%d2
800014ba:	7b f0 8f 23 	movh %d2,14591
800014be:	8f e5 01 50 	sh %d5,%d5,30
800014c2:	1b f2 1f 20 	addi %d2,%d2,511
800014c6:	a6 53       	or %d3,%d5
800014c8:	26 62       	and %d2,%d6
800014ca:	a6 32       	or %d2,%d3
800014cc:	91 30 00 2f 	movh.a %a2,61443
800014d0:	d9 22 28 06 	lea %a2,[%a2]24616 <f0036028 <bmhd_3_copy+0x40c34a28>>
800014d4:	59 32 18 06 	st.w [%a3]24600 <f0036018 <bmhd_3_copy+0x40c34a18>>,%d2
800014d8:	39 c2 10 00 	ld.bu %d2,[%a12]16 <f0036018 <bmhd_3_copy+0x40c34a18>>
800014dc:	39 c3 0d 00 	ld.bu %d3,[%a12]13 <f0036018 <bmhd_3_copy+0x40c34a18>>
800014e0:	8f 12 00 21 	and %d2,%d2,1
800014e4:	37 32 87 34 	insert %d3,%d2,%d3,9,7
800014e8:	39 c2 0c 00 	ld.bu %d2,[%a12]12
800014ec:	54 25       	ld.w %d5,[%a2]
800014ee:	8f 72 00 21 	and %d2,%d2,7
800014f2:	8f 82 01 20 	sh %d2,%d2,24
800014f6:	a6 23       	or %d3,%d2
800014f8:	7b f0 8f 2f 	movh %d2,63743
800014fc:	1b e2 1f 20 	addi %d2,%d2,510
80001500:	26 52       	and %d2,%d5
80001502:	a6 32       	or %d2,%d3
80001504:	d9 33 18 06 	lea %a3,[%a3]24600 <f0036018 <bmhd_3_copy+0x40c34a18>>
80001508:	3b 00 00 53 	mov %d5,12288
8000150c:	74 22       	st.w [%a2],%d2
8000150e:	54 32       	ld.w %d2,[%a3]
80001510:	b7 12 01 28 	insert %d2,%d2,1,16,1
80001514:	74 32       	st.w [%a3],%d2
80001516:	54 22       	ld.w %d2,[%a2]
80001518:	91 30 00 3f 	movh.a %a3,61443
8000151c:	b7 12 01 28 	insert %d2,%d2,1,16,1
80001520:	d9 33 24 06 	lea %a3,[%a3]24612 <f0036024 <bmhd_3_copy+0x40c34a24>>
80001524:	74 22       	st.w [%a2],%d2
80001526:	91 30 00 2f 	movh.a %a2,61443
8000152a:	d9 22 14 06 	lea %a2,[%a2]24596 <f0036014 <bmhd_3_copy+0x40c34a14>>
8000152e:	54 23       	ld.w %d3,[%a2]
80001530:	6f 13 05 80 	jnz.t %d3,1,8000153a <IfxScuCcu_init+0x2c2>
80001534:	54 33       	ld.w %d3,[%a3]
80001536:	6f 13 33 00 	jz.t %d3,1,8000159c <IfxScuCcu_init+0x324>
8000153a:	54 23       	ld.w %d3,[%a2]
8000153c:	1b f5 ff 2f 	addi %d2,%d5,-1
80001540:	6f 13 05 80 	jnz.t %d3,1,8000154a <IfxScuCcu_init+0x2d2>
80001544:	54 33       	ld.w %d3,[%a3]
80001546:	6f 13 2b 00 	jz.t %d3,1,8000159c <IfxScuCcu_init+0x324>
8000154a:	54 23       	ld.w %d3,[%a2]
8000154c:	6f 13 05 80 	jnz.t %d3,1,80001556 <IfxScuCcu_init+0x2de>
80001550:	54 33       	ld.w %d3,[%a3]
80001552:	6f 13 25 00 	jz.t %d3,1,8000159c <IfxScuCcu_init+0x324>
80001556:	54 23       	ld.w %d3,[%a2]
80001558:	6f 13 05 80 	jnz.t %d3,1,80001562 <IfxScuCcu_init+0x2ea>
8000155c:	54 33       	ld.w %d3,[%a3]
8000155e:	6f 13 1f 00 	jz.t %d3,1,8000159c <IfxScuCcu_init+0x324>
80001562:	54 23       	ld.w %d3,[%a2]
80001564:	6f 13 05 80 	jnz.t %d3,1,8000156e <IfxScuCcu_init+0x2f6>
80001568:	54 33       	ld.w %d3,[%a3]
8000156a:	6f 13 19 00 	jz.t %d3,1,8000159c <IfxScuCcu_init+0x324>
8000156e:	54 23       	ld.w %d3,[%a2]
80001570:	6f 13 05 80 	jnz.t %d3,1,8000157a <IfxScuCcu_init+0x302>
80001574:	54 33       	ld.w %d3,[%a3]
80001576:	6f 13 13 00 	jz.t %d3,1,8000159c <IfxScuCcu_init+0x324>
8000157a:	54 23       	ld.w %d3,[%a2]
8000157c:	6f 13 05 80 	jnz.t %d3,1,80001586 <IfxScuCcu_init+0x30e>
80001580:	54 33       	ld.w %d3,[%a3]
80001582:	6f 13 0d 00 	jz.t %d3,1,8000159c <IfxScuCcu_init+0x324>
80001586:	54 23       	ld.w %d3,[%a2]
80001588:	6f 13 05 80 	jnz.t %d3,1,80001592 <IfxScuCcu_init+0x31a>
8000158c:	54 33       	ld.w %d3,[%a3]
8000158e:	6f 13 07 00 	jz.t %d3,1,8000159c <IfxScuCcu_init+0x324>
80001592:	1b 92 ff 5f 	addi %d5,%d2,-7
80001596:	df 72 cc ff 	jne %d2,7,8000152e <IfxScuCcu_init+0x2b6>
8000159a:	82 18       	mov %d8,1
8000159c:	91 30 00 2f 	movh.a %a2,61443
800015a0:	91 30 00 3f 	movh.a %a3,61443
800015a4:	3b 00 00 56 	mov %d5,24576
800015a8:	d9 22 14 06 	lea %a2,[%a2]24596 <f0036014 <bmhd_3_copy+0x40c34a14>>
800015ac:	d9 33 24 06 	lea %a3,[%a3]24612 <f0036024 <bmhd_3_copy+0x40c34a24>>
800015b0:	1d 00 47 00 	j 8000163e <IfxScuCcu_init+0x3c6>
800015b4:	54 23       	ld.w %d3,[%a2]
800015b6:	1b f5 ff 2f 	addi %d2,%d5,-1
800015ba:	6f 53 08 00 	jz.t %d3,5,800015ca <IfxScuCcu_init+0x352>
800015be:	54 33       	ld.w %d3,[%a3]
800015c0:	6f 53 05 00 	jz.t %d3,5,800015ca <IfxScuCcu_init+0x352>
800015c4:	54 33       	ld.w %d3,[%a3]
800015c6:	6f 43 45 80 	jnz.t %d3,4,80001650 <IfxScuCcu_init+0x3d8>
800015ca:	54 23       	ld.w %d3,[%a2]
800015cc:	6f 53 08 00 	jz.t %d3,5,800015dc <IfxScuCcu_init+0x364>
800015d0:	54 33       	ld.w %d3,[%a3]
800015d2:	6f 53 05 00 	jz.t %d3,5,800015dc <IfxScuCcu_init+0x364>
800015d6:	54 33       	ld.w %d3,[%a3]
800015d8:	6f 43 3c 80 	jnz.t %d3,4,80001650 <IfxScuCcu_init+0x3d8>
800015dc:	54 23       	ld.w %d3,[%a2]
800015de:	6f 53 08 00 	jz.t %d3,5,800015ee <IfxScuCcu_init+0x376>
800015e2:	54 33       	ld.w %d3,[%a3]
800015e4:	6f 53 05 00 	jz.t %d3,5,800015ee <IfxScuCcu_init+0x376>
800015e8:	54 33       	ld.w %d3,[%a3]
800015ea:	6f 43 33 80 	jnz.t %d3,4,80001650 <IfxScuCcu_init+0x3d8>
800015ee:	54 23       	ld.w %d3,[%a2]
800015f0:	6f 53 08 00 	jz.t %d3,5,80001600 <IfxScuCcu_init+0x388>
800015f4:	54 33       	ld.w %d3,[%a3]
800015f6:	6f 53 05 00 	jz.t %d3,5,80001600 <IfxScuCcu_init+0x388>
800015fa:	54 33       	ld.w %d3,[%a3]
800015fc:	6f 43 2a 80 	jnz.t %d3,4,80001650 <IfxScuCcu_init+0x3d8>
80001600:	54 23       	ld.w %d3,[%a2]
80001602:	6f 53 08 00 	jz.t %d3,5,80001612 <IfxScuCcu_init+0x39a>
80001606:	54 33       	ld.w %d3,[%a3]
80001608:	6f 53 05 00 	jz.t %d3,5,80001612 <IfxScuCcu_init+0x39a>
8000160c:	54 33       	ld.w %d3,[%a3]
8000160e:	6f 43 21 80 	jnz.t %d3,4,80001650 <IfxScuCcu_init+0x3d8>
80001612:	54 23       	ld.w %d3,[%a2]
80001614:	6f 53 08 00 	jz.t %d3,5,80001624 <IfxScuCcu_init+0x3ac>
80001618:	54 33       	ld.w %d3,[%a3]
8000161a:	6f 53 05 00 	jz.t %d3,5,80001624 <IfxScuCcu_init+0x3ac>
8000161e:	54 33       	ld.w %d3,[%a3]
80001620:	6f 43 18 80 	jnz.t %d3,4,80001650 <IfxScuCcu_init+0x3d8>
80001624:	54 23       	ld.w %d3,[%a2]
80001626:	6f 53 08 00 	jz.t %d3,5,80001636 <IfxScuCcu_init+0x3be>
8000162a:	54 33       	ld.w %d3,[%a3]
8000162c:	6f 53 05 00 	jz.t %d3,5,80001636 <IfxScuCcu_init+0x3be>
80001630:	54 33       	ld.w %d3,[%a3]
80001632:	6f 43 0f 80 	jnz.t %d3,4,80001650 <IfxScuCcu_init+0x3d8>
80001636:	1b 92 ff 5f 	addi %d5,%d2,-7
8000163a:	df 72 c3 04 	jeq %d2,7,80001fc0 <IfxScuCcu_init+0xd48>
8000163e:	54 23       	ld.w %d3,[%a2]
80001640:	6f 53 ba 7f 	jz.t %d3,5,800015b4 <IfxScuCcu_init+0x33c>
80001644:	54 33       	ld.w %d3,[%a3]
80001646:	6f 53 b7 7f 	jz.t %d3,5,800015b4 <IfxScuCcu_init+0x33c>
8000164a:	54 33       	ld.w %d3,[%a3]
8000164c:	6f 43 b4 7f 	jz.t %d3,4,800015b4 <IfxScuCcu_init+0x33c>
80001650:	91 30 00 2f 	movh.a %a2,61443
80001654:	19 22 1c 06 	ld.w %d2,[%a2]24604 <f003601c <bmhd_3_copy+0x40c34a1c>>
80001658:	39 c3 0a 00 	ld.bu %d3,[%a12]10 <f003601c <bmhd_3_copy+0x40c34a1c>>
8000165c:	d9 22 1c 06 	lea %a2,[%a2]24604 <f003601c <bmhd_3_copy+0x40c34a1c>>
80001660:	37 32 03 20 	insert %d2,%d2,%d3,0,3
80001664:	91 30 00 3f 	movh.a %a3,61443
80001668:	d9 33 24 06 	lea %a3,[%a3]24612 <f0036024 <bmhd_3_copy+0x40c34a24>>
8000166c:	74 22       	st.w [%a2],%d2
8000166e:	39 c3 0e 00 	ld.bu %d3,[%a12]14 <f0036024 <bmhd_3_copy+0x40c34a24>>
80001672:	91 30 00 2f 	movh.a %a2,61443
80001676:	39 c5 0f 00 	ld.bu %d5,[%a12]15
8000167a:	19 22 2c 06 	ld.w %d2,[%a2]24620 <f003602c <bmhd_3_copy+0x40c34a2c>>
8000167e:	8f 73 00 31 	and %d3,%d3,7
80001682:	37 53 03 54 	insert %d5,%d3,%d5,8,3
80001686:	3b 80 8f 3f 	mov %d3,-1800
8000168a:	26 23       	and %d3,%d2
8000168c:	a6 53       	or %d3,%d5
8000168e:	37 32 10 20 	insert %d2,%d2,%d3,0,16
80001692:	d9 22 2c 06 	lea %a2,[%a2]24620 <f003602c <bmhd_3_copy+0x40c34a2c>>
80001696:	3b 00 00 56 	mov %d5,24576
8000169a:	74 22       	st.w [%a2],%d2
8000169c:	91 30 00 2f 	movh.a %a2,61443
800016a0:	d9 22 14 06 	lea %a2,[%a2]24596 <f0036014 <bmhd_3_copy+0x40c34a14>>
800016a4:	1d 00 47 00 	j 80001732 <IfxScuCcu_init+0x4ba>
800016a8:	54 23       	ld.w %d3,[%a2]
800016aa:	1b f5 ff 2f 	addi %d2,%d5,-1
800016ae:	6f 53 08 00 	jz.t %d3,5,800016be <IfxScuCcu_init+0x446>
800016b2:	54 33       	ld.w %d3,[%a3]
800016b4:	6f 53 05 00 	jz.t %d3,5,800016be <IfxScuCcu_init+0x446>
800016b8:	54 33       	ld.w %d3,[%a3]
800016ba:	6f 43 45 80 	jnz.t %d3,4,80001744 <IfxScuCcu_init+0x4cc>
800016be:	54 23       	ld.w %d3,[%a2]
800016c0:	6f 53 08 00 	jz.t %d3,5,800016d0 <IfxScuCcu_init+0x458>
800016c4:	54 33       	ld.w %d3,[%a3]
800016c6:	6f 53 05 00 	jz.t %d3,5,800016d0 <IfxScuCcu_init+0x458>
800016ca:	54 33       	ld.w %d3,[%a3]
800016cc:	6f 43 3c 80 	jnz.t %d3,4,80001744 <IfxScuCcu_init+0x4cc>
800016d0:	54 23       	ld.w %d3,[%a2]
800016d2:	6f 53 08 00 	jz.t %d3,5,800016e2 <IfxScuCcu_init+0x46a>
800016d6:	54 33       	ld.w %d3,[%a3]
800016d8:	6f 53 05 00 	jz.t %d3,5,800016e2 <IfxScuCcu_init+0x46a>
800016dc:	54 33       	ld.w %d3,[%a3]
800016de:	6f 43 33 80 	jnz.t %d3,4,80001744 <IfxScuCcu_init+0x4cc>
800016e2:	54 23       	ld.w %d3,[%a2]
800016e4:	6f 53 08 00 	jz.t %d3,5,800016f4 <IfxScuCcu_init+0x47c>
800016e8:	54 33       	ld.w %d3,[%a3]
800016ea:	6f 53 05 00 	jz.t %d3,5,800016f4 <IfxScuCcu_init+0x47c>
800016ee:	54 33       	ld.w %d3,[%a3]
800016f0:	6f 43 2a 80 	jnz.t %d3,4,80001744 <IfxScuCcu_init+0x4cc>
800016f4:	54 23       	ld.w %d3,[%a2]
800016f6:	6f 53 08 00 	jz.t %d3,5,80001706 <IfxScuCcu_init+0x48e>
800016fa:	54 33       	ld.w %d3,[%a3]
800016fc:	6f 53 05 00 	jz.t %d3,5,80001706 <IfxScuCcu_init+0x48e>
80001700:	54 33       	ld.w %d3,[%a3]
80001702:	6f 43 21 80 	jnz.t %d3,4,80001744 <IfxScuCcu_init+0x4cc>
80001706:	54 23       	ld.w %d3,[%a2]
80001708:	6f 53 08 00 	jz.t %d3,5,80001718 <IfxScuCcu_init+0x4a0>
8000170c:	54 33       	ld.w %d3,[%a3]
8000170e:	6f 53 05 00 	jz.t %d3,5,80001718 <IfxScuCcu_init+0x4a0>
80001712:	54 33       	ld.w %d3,[%a3]
80001714:	6f 43 18 80 	jnz.t %d3,4,80001744 <IfxScuCcu_init+0x4cc>
80001718:	54 23       	ld.w %d3,[%a2]
8000171a:	6f 53 08 00 	jz.t %d3,5,8000172a <IfxScuCcu_init+0x4b2>
8000171e:	54 33       	ld.w %d3,[%a3]
80001720:	6f 53 05 00 	jz.t %d3,5,8000172a <IfxScuCcu_init+0x4b2>
80001724:	54 33       	ld.w %d3,[%a3]
80001726:	6f 43 0f 80 	jnz.t %d3,4,80001744 <IfxScuCcu_init+0x4cc>
8000172a:	1b 92 ff 5f 	addi %d5,%d2,-7
8000172e:	df 72 46 04 	jeq %d2,7,80001fba <IfxScuCcu_init+0xd42>
80001732:	54 23       	ld.w %d3,[%a2]
80001734:	6f 53 ba 7f 	jz.t %d3,5,800016a8 <IfxScuCcu_init+0x430>
80001738:	54 33       	ld.w %d3,[%a3]
8000173a:	6f 53 b7 7f 	jz.t %d3,5,800016a8 <IfxScuCcu_init+0x430>
8000173e:	54 33       	ld.w %d3,[%a3]
80001740:	6f 43 b4 7f 	jz.t %d3,4,800016a8 <IfxScuCcu_init+0x430>
80001744:	7b 50 00 50 	movh %d5,5
80001748:	91 30 00 2f 	movh.a %a2,61443
8000174c:	1b 05 3e 59 	addi %d5,%d5,-27680
80001750:	d9 22 10 06 	lea %a2,[%a2]24592 <f0036010 <bmhd_3_copy+0x40c34a10>>
80001754:	54 23       	ld.w %d3,[%a2]
80001756:	6f 13 36 80 	jnz.t %d3,1,800017c2 <IfxScuCcu_init+0x54a>
8000175a:	54 23       	ld.w %d3,[%a2]
8000175c:	6f 83 33 80 	jnz.t %d3,8,800017c2 <IfxScuCcu_init+0x54a>
80001760:	54 23       	ld.w %d3,[%a2]
80001762:	1b f5 ff 2f 	addi %d2,%d5,-1
80001766:	6f 13 2e 80 	jnz.t %d3,1,800017c2 <IfxScuCcu_init+0x54a>
8000176a:	54 23       	ld.w %d3,[%a2]
8000176c:	6f 83 2b 80 	jnz.t %d3,8,800017c2 <IfxScuCcu_init+0x54a>
80001770:	54 23       	ld.w %d3,[%a2]
80001772:	6f 13 28 80 	jnz.t %d3,1,800017c2 <IfxScuCcu_init+0x54a>
80001776:	54 23       	ld.w %d3,[%a2]
80001778:	6f 83 25 80 	jnz.t %d3,8,800017c2 <IfxScuCcu_init+0x54a>
8000177c:	54 23       	ld.w %d3,[%a2]
8000177e:	6f 13 22 80 	jnz.t %d3,1,800017c2 <IfxScuCcu_init+0x54a>
80001782:	54 23       	ld.w %d3,[%a2]
80001784:	6f 83 1f 80 	jnz.t %d3,8,800017c2 <IfxScuCcu_init+0x54a>
80001788:	54 23       	ld.w %d3,[%a2]
8000178a:	6f 13 1c 80 	jnz.t %d3,1,800017c2 <IfxScuCcu_init+0x54a>
8000178e:	54 23       	ld.w %d3,[%a2]
80001790:	6f 83 19 80 	jnz.t %d3,8,800017c2 <IfxScuCcu_init+0x54a>
80001794:	54 23       	ld.w %d3,[%a2]
80001796:	6f 13 16 80 	jnz.t %d3,1,800017c2 <IfxScuCcu_init+0x54a>
8000179a:	54 23       	ld.w %d3,[%a2]
8000179c:	6f 83 13 80 	jnz.t %d3,8,800017c2 <IfxScuCcu_init+0x54a>
800017a0:	54 23       	ld.w %d3,[%a2]
800017a2:	6f 13 10 80 	jnz.t %d3,1,800017c2 <IfxScuCcu_init+0x54a>
800017a6:	54 23       	ld.w %d3,[%a2]
800017a8:	6f 83 0d 80 	jnz.t %d3,8,800017c2 <IfxScuCcu_init+0x54a>
800017ac:	54 23       	ld.w %d3,[%a2]
800017ae:	6f 13 0a 80 	jnz.t %d3,1,800017c2 <IfxScuCcu_init+0x54a>
800017b2:	54 23       	ld.w %d3,[%a2]
800017b4:	6f 83 07 80 	jnz.t %d3,8,800017c2 <IfxScuCcu_init+0x54a>
800017b8:	1b 92 ff 5f 	addi %d5,%d2,-7
800017bc:	df 72 cc ff 	jne %d2,7,80001754 <IfxScuCcu_init+0x4dc>
800017c0:	82 18       	mov %d8,1
800017c2:	91 30 00 2f 	movh.a %a2,61443
800017c6:	19 22 18 06 	ld.w %d2,[%a2]24600 <f0036018 <bmhd_3_copy+0x40c34a18>>
800017ca:	d9 22 18 06 	lea %a2,[%a2]24600 <f0036018 <bmhd_3_copy+0x40c34a18>>
800017ce:	b7 12 01 29 	insert %d2,%d2,1,18,1
800017d2:	91 30 00 3f 	movh.a %a3,61443
800017d6:	3b 00 00 53 	mov %d5,12288
800017da:	d9 33 24 06 	lea %a3,[%a3]24612 <f0036024 <bmhd_3_copy+0x40c34a24>>
800017de:	74 22       	st.w [%a2],%d2
800017e0:	91 30 00 2f 	movh.a %a2,61443
800017e4:	19 22 28 06 	ld.w %d2,[%a2]24616 <f0036028 <bmhd_3_copy+0x40c34a28>>
800017e8:	d9 22 28 06 	lea %a2,[%a2]24616 <f0036028 <bmhd_3_copy+0x40c34a28>>
800017ec:	b7 12 01 29 	insert %d2,%d2,1,18,1
800017f0:	74 22       	st.w [%a2],%d2
800017f2:	91 30 00 2f 	movh.a %a2,61443
800017f6:	d9 22 14 06 	lea %a2,[%a2]24596 <f0036014 <bmhd_3_copy+0x40c34a14>>
800017fa:	54 23       	ld.w %d3,[%a2]
800017fc:	6f 23 05 00 	jz.t %d3,2,80001806 <IfxScuCcu_init+0x58e>
80001800:	54 33       	ld.w %d3,[%a3]
80001802:	6f 23 33 80 	jnz.t %d3,2,80001868 <IfxScuCcu_init+0x5f0>
80001806:	54 23       	ld.w %d3,[%a2]
80001808:	1b f5 ff 2f 	addi %d2,%d5,-1
8000180c:	6f 23 05 00 	jz.t %d3,2,80001816 <IfxScuCcu_init+0x59e>
80001810:	54 33       	ld.w %d3,[%a3]
80001812:	6f 23 2b 80 	jnz.t %d3,2,80001868 <IfxScuCcu_init+0x5f0>
80001816:	54 23       	ld.w %d3,[%a2]
80001818:	6f 23 05 00 	jz.t %d3,2,80001822 <IfxScuCcu_init+0x5aa>
8000181c:	54 33       	ld.w %d3,[%a3]
8000181e:	6f 23 25 80 	jnz.t %d3,2,80001868 <IfxScuCcu_init+0x5f0>
80001822:	54 23       	ld.w %d3,[%a2]
80001824:	6f 23 05 00 	jz.t %d3,2,8000182e <IfxScuCcu_init+0x5b6>
80001828:	54 33       	ld.w %d3,[%a3]
8000182a:	6f 23 1f 80 	jnz.t %d3,2,80001868 <IfxScuCcu_init+0x5f0>
8000182e:	54 23       	ld.w %d3,[%a2]
80001830:	6f 23 05 00 	jz.t %d3,2,8000183a <IfxScuCcu_init+0x5c2>
80001834:	54 33       	ld.w %d3,[%a3]
80001836:	6f 23 19 80 	jnz.t %d3,2,80001868 <IfxScuCcu_init+0x5f0>
8000183a:	54 23       	ld.w %d3,[%a2]
8000183c:	6f 23 05 00 	jz.t %d3,2,80001846 <IfxScuCcu_init+0x5ce>
80001840:	54 33       	ld.w %d3,[%a3]
80001842:	6f 23 13 80 	jnz.t %d3,2,80001868 <IfxScuCcu_init+0x5f0>
80001846:	54 23       	ld.w %d3,[%a2]
80001848:	6f 23 05 00 	jz.t %d3,2,80001852 <IfxScuCcu_init+0x5da>
8000184c:	54 33       	ld.w %d3,[%a3]
8000184e:	6f 23 0d 80 	jnz.t %d3,2,80001868 <IfxScuCcu_init+0x5f0>
80001852:	54 23       	ld.w %d3,[%a2]
80001854:	6f 23 05 00 	jz.t %d3,2,8000185e <IfxScuCcu_init+0x5e6>
80001858:	54 33       	ld.w %d3,[%a3]
8000185a:	6f 23 07 80 	jnz.t %d3,2,80001868 <IfxScuCcu_init+0x5f0>
8000185e:	1b 92 ff 5f 	addi %d5,%d2,-7
80001862:	df 72 cc ff 	jne %d2,7,800017fa <IfxScuCcu_init+0x582>
80001866:	82 18       	mov %d8,1
80001868:	3b c0 0b 20 	mov %d2,188
8000186c:	91 30 00 2f 	movh.a %a2,61443
80001870:	91 30 00 3f 	movh.a %a3,61443
80001874:	59 22 b4 06 	st.w [%a2]26676 <f0036834 <bmhd_3_copy+0x40c35234>>,%d2
80001878:	82 52       	mov %d2,5
8000187a:	d9 33 a0 06 	lea %a3,[%a3]26656 <f0036820 <bmhd_3_copy+0x40c35220>>
8000187e:	d9 22 b4 06 	lea %a2,[%a2]26676 <f0036834 <bmhd_3_copy+0x40c35234>>
80001882:	74 32       	st.w [%a3],%d2
80001884:	3b d0 01 20 	mov %d2,29
80001888:	91 30 00 3f 	movh.a %a3,61443
8000188c:	d9 33 a0 76 	lea %a3,[%a3]27104 <f00369e0 <bmhd_3_copy+0x40c353e0>>
80001890:	74 32       	st.w [%a3],%d2
80001892:	82 02       	mov %d2,0
80001894:	3b 00 00 51 	mov %d5,4096
80001898:	74 22       	st.w [%a2],%d2
8000189a:	91 30 00 2f 	movh.a %a2,61443
8000189e:	19 22 30 06 	ld.w %d2,[%a2]24624 <f0036030 <bmhd_3_copy+0x40c34a30>>
800018a2:	d9 22 30 06 	lea %a2,[%a2]24624 <f0036030 <bmhd_3_copy+0x40c34a30>>
800018a6:	37 02 68 3c 	extr.u %d3,%d2,24,8
800018aa:	b7 53 03 32 	insert %d3,%d3,5,4,3
800018ae:	37 32 08 2c 	insert %d2,%d2,%d3,24,8
800018b2:	54 23       	ld.w %d3,[%a2]
800018b4:	ff 03 1b 00 	jge %d3,0,800018ea <IfxScuCcu_init+0x672>
800018b8:	54 23       	ld.w %d3,[%a2]
800018ba:	ff 03 18 00 	jge %d3,0,800018ea <IfxScuCcu_init+0x672>
800018be:	54 23       	ld.w %d3,[%a2]
800018c0:	ff 03 15 00 	jge %d3,0,800018ea <IfxScuCcu_init+0x672>
800018c4:	54 23       	ld.w %d3,[%a2]
800018c6:	ff 03 12 00 	jge %d3,0,800018ea <IfxScuCcu_init+0x672>
800018ca:	54 23       	ld.w %d3,[%a2]
800018cc:	ff 03 0f 00 	jge %d3,0,800018ea <IfxScuCcu_init+0x672>
800018d0:	54 23       	ld.w %d3,[%a2]
800018d2:	ff 03 0c 00 	jge %d3,0,800018ea <IfxScuCcu_init+0x672>
800018d6:	54 23       	ld.w %d3,[%a2]
800018d8:	ff 03 09 00 	jge %d3,0,800018ea <IfxScuCcu_init+0x672>
800018dc:	54 23       	ld.w %d3,[%a2]
800018de:	ff 03 06 00 	jge %d3,0,800018ea <IfxScuCcu_init+0x672>
800018e2:	c2 85       	add %d5,-8
800018e4:	df 05 e7 ff 	jne %d5,0,800018b2 <IfxScuCcu_init+0x63a>
800018e8:	82 18       	mov %d8,1
800018ea:	91 30 00 2f 	movh.a %a2,61443
800018ee:	d9 22 30 06 	lea %a2,[%a2]24624 <f0036030 <bmhd_3_copy+0x40c34a30>>
800018f2:	74 22       	st.w [%a2],%d2
800018f4:	3b 00 00 21 	mov %d2,4096
800018f8:	54 23       	ld.w %d3,[%a2]
800018fa:	ff 03 1b 00 	jge %d3,0,80001930 <IfxScuCcu_init+0x6b8>
800018fe:	54 23       	ld.w %d3,[%a2]
80001900:	ff 03 18 00 	jge %d3,0,80001930 <IfxScuCcu_init+0x6b8>
80001904:	54 23       	ld.w %d3,[%a2]
80001906:	ff 03 15 00 	jge %d3,0,80001930 <IfxScuCcu_init+0x6b8>
8000190a:	54 23       	ld.w %d3,[%a2]
8000190c:	ff 03 12 00 	jge %d3,0,80001930 <IfxScuCcu_init+0x6b8>
80001910:	54 23       	ld.w %d3,[%a2]
80001912:	ff 03 0f 00 	jge %d3,0,80001930 <IfxScuCcu_init+0x6b8>
80001916:	54 23       	ld.w %d3,[%a2]
80001918:	ff 03 0c 00 	jge %d3,0,80001930 <IfxScuCcu_init+0x6b8>
8000191c:	54 23       	ld.w %d3,[%a2]
8000191e:	ff 03 09 00 	jge %d3,0,80001930 <IfxScuCcu_init+0x6b8>
80001922:	54 23       	ld.w %d3,[%a2]
80001924:	ff 03 06 00 	jge %d3,0,80001930 <IfxScuCcu_init+0x6b8>
80001928:	c2 82       	add %d2,-8
8000192a:	df 02 e7 ff 	jne %d2,0,800018f8 <IfxScuCcu_init+0x680>
8000192e:	82 18       	mov %d8,1
80001930:	91 30 00 2f 	movh.a %a2,61443
80001934:	19 22 28 a6 	ld.w %d2,[%a2]25256 <f00362a8 <bmhd_3_copy+0x40c34ca8>>
80001938:	d9 22 28 a6 	lea %a2,[%a2]25256 <f00362a8 <bmhd_3_copy+0x40c34ca8>>
8000193c:	6f 12 09 00 	jz.t %d2,1,8000194e <IfxScuCcu_init+0x6d6>
80001940:	54 22       	ld.w %d2,[%a2]
80001942:	b7 02 10 20 	insert %d2,%d2,0,0,16
80001946:	a6 42       	or %d2,%d4
80001948:	8f 12 40 21 	or %d2,%d2,1
8000194c:	74 22       	st.w [%a2],%d2
8000194e:	91 30 00 df 	movh.a %a13,61443
80001952:	19 d2 28 a6 	ld.w %d2,[%a13]25256 <f00362a8 <bmhd_3_copy+0x40c34ca8>>
80001956:	d9 dd 28 a6 	lea %a13,[%a13]25256 <f00362a8 <bmhd_3_copy+0x40c34ca8>>
8000195a:	b7 02 10 20 	insert %d2,%d2,0,0,16
8000195e:	a6 42       	or %d2,%d4
80001960:	8f 32 40 21 	or %d2,%d2,3
80001964:	74 d2       	st.w [%a13],%d2
80001966:	54 d3       	ld.w %d3,[%a13]
80001968:	6f 03 ff 7f 	jz.t %d3,0,80001966 <IfxScuCcu_init+0x6ee>
8000196c:	df 08 05 00 	jeq %d8,0,80001976 <IfxScuCcu_init+0x6fe>
80001970:	82 18       	mov %d8,1
80001972:	02 82       	mov %d2,%d8
80001974:	00 90       	ret 
80001976:	99 c4 1c 10 	ld.a %a4,[%a12]92
8000197a:	6d ff 04 fc 	call 80001182 <IfxScuCcu_modulation_init>
8000197e:	54 d2       	ld.w %d2,[%a13]
80001980:	54 d3       	ld.w %d3,[%a13]
80001982:	37 02 6e 21 	extr.u %d2,%d2,2,14
80001986:	8f f2 83 41 	xor %d4,%d2,63
8000198a:	06 24       	sh %d4,2
8000198c:	6f 13 3e 80 	jnz.t %d3,1,80001a08 <IfxScuCcu_init+0x790>
80001990:	91 30 00 2f 	movh.a %a2,61443
80001994:	19 22 28 a6 	ld.w %d2,[%a2]25256 <f00362a8 <bmhd_3_copy+0x40c34ca8>>
80001998:	d9 22 28 a6 	lea %a2,[%a2]25256 <f00362a8 <bmhd_3_copy+0x40c34ca8>>
8000199c:	b7 02 10 20 	insert %d2,%d2,0,0,16
800019a0:	a6 42       	or %d2,%d4
800019a2:	8f 22 40 21 	or %d2,%d2,2
800019a6:	74 22       	st.w [%a2],%d2
800019a8:	54 22       	ld.w %d2,[%a2]
800019aa:	6f 02 ff ff 	jnz.t %d2,0,800019a8 <IfxScuCcu_init+0x730>
800019ae:	91 30 00 2f 	movh.a %a2,61443
800019b2:	19 25 30 06 	ld.w %d5,[%a2]24624 <f0036030 <bmhd_3_copy+0x40c34a30>>
800019b6:	19 c3 20 00 	ld.w %d3,[%a12]32 <f0036030 <bmhd_3_copy+0x40c34a30>>
800019ba:	19 c2 24 00 	ld.w %d2,[%a12]36 <f0036030 <bmhd_3_copy+0x40c34a30>>
800019be:	c6 53       	xor %d3,%d5
800019c0:	26 23       	and %d3,%d2
800019c2:	d9 22 30 06 	lea %a2,[%a2]24624 <f0036030 <bmhd_3_copy+0x40c34a30>>
800019c6:	c6 35       	xor %d5,%d3
800019c8:	3b 00 00 21 	mov %d2,4096
800019cc:	54 23       	ld.w %d3,[%a2]
800019ce:	ff 03 26 00 	jge %d3,0,80001a1a <IfxScuCcu_init+0x7a2>
800019d2:	54 23       	ld.w %d3,[%a2]
800019d4:	ff 03 23 00 	jge %d3,0,80001a1a <IfxScuCcu_init+0x7a2>
800019d8:	54 23       	ld.w %d3,[%a2]
800019da:	ff 03 20 00 	jge %d3,0,80001a1a <IfxScuCcu_init+0x7a2>
800019de:	54 23       	ld.w %d3,[%a2]
800019e0:	ff 03 1d 00 	jge %d3,0,80001a1a <IfxScuCcu_init+0x7a2>
800019e4:	54 23       	ld.w %d3,[%a2]
800019e6:	ff 03 1a 00 	jge %d3,0,80001a1a <IfxScuCcu_init+0x7a2>
800019ea:	54 23       	ld.w %d3,[%a2]
800019ec:	ff 03 17 00 	jge %d3,0,80001a1a <IfxScuCcu_init+0x7a2>
800019f0:	54 23       	ld.w %d3,[%a2]
800019f2:	ff 03 14 00 	jge %d3,0,80001a1a <IfxScuCcu_init+0x7a2>
800019f6:	54 23       	ld.w %d3,[%a2]
800019f8:	ff 03 11 00 	jge %d3,0,80001a1a <IfxScuCcu_init+0x7a2>
800019fc:	c2 82       	add %d2,-8
800019fe:	df 02 e7 ff 	jne %d2,0,800019cc <IfxScuCcu_init+0x754>
80001a02:	82 17       	mov %d7,1
80001a04:	1d 00 0c 00 	j 80001a1c <IfxScuCcu_init+0x7a4>
80001a08:	54 d2       	ld.w %d2,[%a13]
80001a0a:	b7 02 10 20 	insert %d2,%d2,0,0,16
80001a0e:	a6 42       	or %d2,%d4
80001a10:	8f 12 40 21 	or %d2,%d2,1
80001a14:	74 d2       	st.w [%a13],%d2
80001a16:	1d ff bd ff 	j 80001990 <IfxScuCcu_init+0x718>
80001a1a:	82 07       	mov %d7,0
80001a1c:	91 30 00 2f 	movh.a %a2,61443
80001a20:	d9 22 30 06 	lea %a2,[%a2]24624 <f0036030 <bmhd_3_copy+0x40c34a30>>
80001a24:	3b 00 00 21 	mov %d2,4096
80001a28:	74 25       	st.w [%a2],%d5
80001a2a:	54 23       	ld.w %d3,[%a2]
80001a2c:	ff 03 1b 00 	jge %d3,0,80001a62 <IfxScuCcu_init+0x7ea>
80001a30:	54 23       	ld.w %d3,[%a2]
80001a32:	ff 03 18 00 	jge %d3,0,80001a62 <IfxScuCcu_init+0x7ea>
80001a36:	54 23       	ld.w %d3,[%a2]
80001a38:	ff 03 15 00 	jge %d3,0,80001a62 <IfxScuCcu_init+0x7ea>
80001a3c:	54 23       	ld.w %d3,[%a2]
80001a3e:	ff 03 12 00 	jge %d3,0,80001a62 <IfxScuCcu_init+0x7ea>
80001a42:	54 23       	ld.w %d3,[%a2]
80001a44:	ff 03 0f 00 	jge %d3,0,80001a62 <IfxScuCcu_init+0x7ea>
80001a48:	54 23       	ld.w %d3,[%a2]
80001a4a:	ff 03 0c 00 	jge %d3,0,80001a62 <IfxScuCcu_init+0x7ea>
80001a4e:	54 23       	ld.w %d3,[%a2]
80001a50:	ff 03 09 00 	jge %d3,0,80001a62 <IfxScuCcu_init+0x7ea>
80001a54:	54 23       	ld.w %d3,[%a2]
80001a56:	ff 03 06 00 	jge %d3,0,80001a62 <IfxScuCcu_init+0x7ea>
80001a5a:	c2 82       	add %d2,-8
80001a5c:	df 02 e7 ff 	jne %d2,0,80001a2a <IfxScuCcu_init+0x7b2>
80001a60:	82 17       	mov %d7,1
80001a62:	91 30 00 2f 	movh.a %a2,61443
80001a66:	7b 00 03 23 	movh %d2,12336
80001a6a:	19 23 34 06 	ld.w %d3,[%a2]24628 <f0036034 <bmhd_3_copy+0x40c34a34>>
80001a6e:	1b 02 03 20 	addi %d2,%d2,48
80001a72:	26 32       	and %d2,%d3
80001a74:	d9 22 34 06 	lea %a2,[%a2]24628 <f0036034 <bmhd_3_copy+0x40c34a34>>
80001a78:	19 c5 2c 00 	ld.w %d5,[%a12]44 <f0036034 <bmhd_3_copy+0x40c34a34>>
80001a7c:	19 c6 28 00 	ld.w %d6,[%a12]40 <f0036034 <bmhd_3_copy+0x40c34a34>>
80001a80:	df 02 4d 00 	jeq %d2,0,80001b1a <IfxScuCcu_init+0x8a2>
80001a84:	54 22       	ld.w %d2,[%a2]
80001a86:	7b 00 fd 0c 	movh %d0,53200
80001a8a:	0f 62 c0 30 	xor %d3,%d2,%d6
80001a8e:	26 53       	and %d3,%d5
80001a90:	c6 32       	xor %d2,%d3
80001a92:	1b f0 fc 0f 	addi %d0,%d0,-49
80001a96:	26 20       	and %d0,%d2
80001a98:	3b 00 00 21 	mov %d2,4096
80001a9c:	54 23       	ld.w %d3,[%a2]
80001a9e:	ff 03 1b 00 	jge %d3,0,80001ad4 <IfxScuCcu_init+0x85c>
80001aa2:	54 23       	ld.w %d3,[%a2]
80001aa4:	ff 03 18 00 	jge %d3,0,80001ad4 <IfxScuCcu_init+0x85c>
80001aa8:	54 23       	ld.w %d3,[%a2]
80001aaa:	ff 03 15 00 	jge %d3,0,80001ad4 <IfxScuCcu_init+0x85c>
80001aae:	54 23       	ld.w %d3,[%a2]
80001ab0:	ff 03 12 00 	jge %d3,0,80001ad4 <IfxScuCcu_init+0x85c>
80001ab4:	54 23       	ld.w %d3,[%a2]
80001ab6:	ff 03 0f 00 	jge %d3,0,80001ad4 <IfxScuCcu_init+0x85c>
80001aba:	54 23       	ld.w %d3,[%a2]
80001abc:	ff 03 0c 00 	jge %d3,0,80001ad4 <IfxScuCcu_init+0x85c>
80001ac0:	54 23       	ld.w %d3,[%a2]
80001ac2:	ff 03 09 00 	jge %d3,0,80001ad4 <IfxScuCcu_init+0x85c>
80001ac6:	54 23       	ld.w %d3,[%a2]
80001ac8:	ff 03 06 00 	jge %d3,0,80001ad4 <IfxScuCcu_init+0x85c>
80001acc:	c2 82       	add %d2,-8
80001ace:	df 02 e7 ff 	jne %d2,0,80001a9c <IfxScuCcu_init+0x824>
80001ad2:	82 17       	mov %d7,1
80001ad4:	91 30 00 2f 	movh.a %a2,61443
80001ad8:	d9 22 34 06 	lea %a2,[%a2]24628 <f0036034 <bmhd_3_copy+0x40c34a34>>
80001adc:	3b 00 00 21 	mov %d2,4096
80001ae0:	74 20       	st.w [%a2],%d0
80001ae2:	54 23       	ld.w %d3,[%a2]
80001ae4:	ff 03 1b 00 	jge %d3,0,80001b1a <IfxScuCcu_init+0x8a2>
80001ae8:	54 23       	ld.w %d3,[%a2]
80001aea:	ff 03 18 00 	jge %d3,0,80001b1a <IfxScuCcu_init+0x8a2>
80001aee:	54 23       	ld.w %d3,[%a2]
80001af0:	ff 03 15 00 	jge %d3,0,80001b1a <IfxScuCcu_init+0x8a2>
80001af4:	54 23       	ld.w %d3,[%a2]
80001af6:	ff 03 12 00 	jge %d3,0,80001b1a <IfxScuCcu_init+0x8a2>
80001afa:	54 23       	ld.w %d3,[%a2]
80001afc:	ff 03 0f 00 	jge %d3,0,80001b1a <IfxScuCcu_init+0x8a2>
80001b00:	54 23       	ld.w %d3,[%a2]
80001b02:	ff 03 0c 00 	jge %d3,0,80001b1a <IfxScuCcu_init+0x8a2>
80001b06:	54 23       	ld.w %d3,[%a2]
80001b08:	ff 03 09 00 	jge %d3,0,80001b1a <IfxScuCcu_init+0x8a2>
80001b0c:	54 23       	ld.w %d3,[%a2]
80001b0e:	ff 03 06 00 	jge %d3,0,80001b1a <IfxScuCcu_init+0x8a2>
80001b12:	c2 82       	add %d2,-8
80001b14:	df 02 e7 ff 	jne %d2,0,80001ae2 <IfxScuCcu_init+0x86a>
80001b18:	82 17       	mov %d7,1
80001b1a:	91 30 00 2f 	movh.a %a2,61443
80001b1e:	19 22 34 06 	ld.w %d2,[%a2]24628 <f0036034 <bmhd_3_copy+0x40c34a34>>
80001b22:	d9 22 34 06 	lea %a2,[%a2]24628 <f0036034 <bmhd_3_copy+0x40c34a34>>
80001b26:	c6 26       	xor %d6,%d2
80001b28:	26 65       	and %d5,%d6
80001b2a:	c6 25       	xor %d5,%d2
80001b2c:	3b 00 00 21 	mov %d2,4096
80001b30:	54 23       	ld.w %d3,[%a2]
80001b32:	ff 03 1b 00 	jge %d3,0,80001b68 <IfxScuCcu_init+0x8f0>
80001b36:	54 23       	ld.w %d3,[%a2]
80001b38:	ff 03 18 00 	jge %d3,0,80001b68 <IfxScuCcu_init+0x8f0>
80001b3c:	54 23       	ld.w %d3,[%a2]
80001b3e:	ff 03 15 00 	jge %d3,0,80001b68 <IfxScuCcu_init+0x8f0>
80001b42:	54 23       	ld.w %d3,[%a2]
80001b44:	ff 03 12 00 	jge %d3,0,80001b68 <IfxScuCcu_init+0x8f0>
80001b48:	54 23       	ld.w %d3,[%a2]
80001b4a:	ff 03 0f 00 	jge %d3,0,80001b68 <IfxScuCcu_init+0x8f0>
80001b4e:	54 23       	ld.w %d3,[%a2]
80001b50:	ff 03 0c 00 	jge %d3,0,80001b68 <IfxScuCcu_init+0x8f0>
80001b54:	54 23       	ld.w %d3,[%a2]
80001b56:	ff 03 09 00 	jge %d3,0,80001b68 <IfxScuCcu_init+0x8f0>
80001b5a:	54 23       	ld.w %d3,[%a2]
80001b5c:	ff 03 06 00 	jge %d3,0,80001b68 <IfxScuCcu_init+0x8f0>
80001b60:	c2 82       	add %d2,-8
80001b62:	df 02 e7 ff 	jne %d2,0,80001b30 <IfxScuCcu_init+0x8b8>
80001b66:	82 17       	mov %d7,1
80001b68:	91 30 00 2f 	movh.a %a2,61443
80001b6c:	d9 22 34 06 	lea %a2,[%a2]24628 <f0036034 <bmhd_3_copy+0x40c34a34>>
80001b70:	3b 00 00 21 	mov %d2,4096
80001b74:	74 25       	st.w [%a2],%d5
80001b76:	54 23       	ld.w %d3,[%a2]
80001b78:	ff 03 1b 00 	jge %d3,0,80001bae <IfxScuCcu_init+0x936>
80001b7c:	54 23       	ld.w %d3,[%a2]
80001b7e:	ff 03 18 00 	jge %d3,0,80001bae <IfxScuCcu_init+0x936>
80001b82:	54 23       	ld.w %d3,[%a2]
80001b84:	ff 03 15 00 	jge %d3,0,80001bae <IfxScuCcu_init+0x936>
80001b88:	54 23       	ld.w %d3,[%a2]
80001b8a:	ff 03 12 00 	jge %d3,0,80001bae <IfxScuCcu_init+0x936>
80001b8e:	54 23       	ld.w %d3,[%a2]
80001b90:	ff 03 0f 00 	jge %d3,0,80001bae <IfxScuCcu_init+0x936>
80001b94:	54 23       	ld.w %d3,[%a2]
80001b96:	ff 03 0c 00 	jge %d3,0,80001bae <IfxScuCcu_init+0x936>
80001b9a:	54 23       	ld.w %d3,[%a2]
80001b9c:	ff 03 09 00 	jge %d3,0,80001bae <IfxScuCcu_init+0x936>
80001ba0:	54 23       	ld.w %d3,[%a2]
80001ba2:	ff 03 06 00 	jge %d3,0,80001bae <IfxScuCcu_init+0x936>
80001ba6:	c2 82       	add %d2,-8
80001ba8:	df 02 e7 ff 	jne %d2,0,80001b76 <IfxScuCcu_init+0x8fe>
80001bac:	82 17       	mov %d7,1
80001bae:	91 30 00 2f 	movh.a %a2,61443
80001bb2:	19 23 00 16 	ld.w %d3,[%a2]24640 <f0036040 <bmhd_3_copy+0x40c34a40>>
80001bb6:	3b 00 00 23 	mov %d2,12288
80001bba:	26 32       	and %d2,%d3
80001bbc:	d9 22 00 16 	lea %a2,[%a2]24640 <f0036040 <bmhd_3_copy+0x40c34a40>>
80001bc0:	19 c6 34 00 	ld.w %d6,[%a12]52 <f0036040 <bmhd_3_copy+0x40c34a40>>
80001bc4:	19 c0 30 00 	ld.w %d0,[%a12]48 <f0036040 <bmhd_3_copy+0x40c34a40>>
80001bc8:	df 02 4a 00 	jeq %d2,0,80001c5c <IfxScuCcu_init+0x9e4>
80001bcc:	54 22       	ld.w %d2,[%a2]
80001bce:	3b 00 00 51 	mov %d5,4096
80001bd2:	0f 02 c0 30 	xor %d3,%d2,%d0
80001bd6:	26 63       	and %d3,%d6
80001bd8:	c6 32       	xor %d2,%d3
80001bda:	b7 02 02 26 	insert %d2,%d2,0,12,2
80001bde:	54 23       	ld.w %d3,[%a2]
80001be0:	ff 03 1b 00 	jge %d3,0,80001c16 <IfxScuCcu_init+0x99e>
80001be4:	54 23       	ld.w %d3,[%a2]
80001be6:	ff 03 18 00 	jge %d3,0,80001c16 <IfxScuCcu_init+0x99e>
80001bea:	54 23       	ld.w %d3,[%a2]
80001bec:	ff 03 15 00 	jge %d3,0,80001c16 <IfxScuCcu_init+0x99e>
80001bf0:	54 23       	ld.w %d3,[%a2]
80001bf2:	ff 03 12 00 	jge %d3,0,80001c16 <IfxScuCcu_init+0x99e>
80001bf6:	54 23       	ld.w %d3,[%a2]
80001bf8:	ff 03 0f 00 	jge %d3,0,80001c16 <IfxScuCcu_init+0x99e>
80001bfc:	54 23       	ld.w %d3,[%a2]
80001bfe:	ff 03 0c 00 	jge %d3,0,80001c16 <IfxScuCcu_init+0x99e>
80001c02:	54 23       	ld.w %d3,[%a2]
80001c04:	ff 03 09 00 	jge %d3,0,80001c16 <IfxScuCcu_init+0x99e>
80001c08:	54 23       	ld.w %d3,[%a2]
80001c0a:	ff 03 06 00 	jge %d3,0,80001c16 <IfxScuCcu_init+0x99e>
80001c0e:	c2 85       	add %d5,-8
80001c10:	df 05 e7 ff 	jne %d5,0,80001bde <IfxScuCcu_init+0x966>
80001c14:	82 17       	mov %d7,1
80001c16:	91 30 00 2f 	movh.a %a2,61443
80001c1a:	d9 22 00 16 	lea %a2,[%a2]24640 <f0036040 <bmhd_3_copy+0x40c34a40>>
80001c1e:	74 22       	st.w [%a2],%d2
80001c20:	3b 00 00 21 	mov %d2,4096
80001c24:	54 23       	ld.w %d3,[%a2]
80001c26:	ff 03 1b 00 	jge %d3,0,80001c5c <IfxScuCcu_init+0x9e4>
80001c2a:	54 23       	ld.w %d3,[%a2]
80001c2c:	ff 03 18 00 	jge %d3,0,80001c5c <IfxScuCcu_init+0x9e4>
80001c30:	54 23       	ld.w %d3,[%a2]
80001c32:	ff 03 15 00 	jge %d3,0,80001c5c <IfxScuCcu_init+0x9e4>
80001c36:	54 23       	ld.w %d3,[%a2]
80001c38:	ff 03 12 00 	jge %d3,0,80001c5c <IfxScuCcu_init+0x9e4>
80001c3c:	54 23       	ld.w %d3,[%a2]
80001c3e:	ff 03 0f 00 	jge %d3,0,80001c5c <IfxScuCcu_init+0x9e4>
80001c42:	54 23       	ld.w %d3,[%a2]
80001c44:	ff 03 0c 00 	jge %d3,0,80001c5c <IfxScuCcu_init+0x9e4>
80001c48:	54 23       	ld.w %d3,[%a2]
80001c4a:	ff 03 09 00 	jge %d3,0,80001c5c <IfxScuCcu_init+0x9e4>
80001c4e:	54 23       	ld.w %d3,[%a2]
80001c50:	ff 03 06 00 	jge %d3,0,80001c5c <IfxScuCcu_init+0x9e4>
80001c54:	c2 82       	add %d2,-8
80001c56:	df 02 e7 ff 	jne %d2,0,80001c24 <IfxScuCcu_init+0x9ac>
80001c5a:	82 17       	mov %d7,1
80001c5c:	91 30 00 2f 	movh.a %a2,61443
80001c60:	19 25 00 16 	ld.w %d5,[%a2]24640 <f0036040 <bmhd_3_copy+0x40c34a40>>
80001c64:	d9 22 00 16 	lea %a2,[%a2]24640 <f0036040 <bmhd_3_copy+0x40c34a40>>
80001c68:	0f 05 c0 30 	xor %d3,%d5,%d0
80001c6c:	26 63       	and %d3,%d6
80001c6e:	c6 35       	xor %d5,%d3
80001c70:	3b 00 00 21 	mov %d2,4096
80001c74:	54 23       	ld.w %d3,[%a2]
80001c76:	ff 03 1b 00 	jge %d3,0,80001cac <IfxScuCcu_init+0xa34>
80001c7a:	54 23       	ld.w %d3,[%a2]
80001c7c:	ff 03 18 00 	jge %d3,0,80001cac <IfxScuCcu_init+0xa34>
80001c80:	54 23       	ld.w %d3,[%a2]
80001c82:	ff 03 15 00 	jge %d3,0,80001cac <IfxScuCcu_init+0xa34>
80001c86:	54 23       	ld.w %d3,[%a2]
80001c88:	ff 03 12 00 	jge %d3,0,80001cac <IfxScuCcu_init+0xa34>
80001c8c:	54 23       	ld.w %d3,[%a2]
80001c8e:	ff 03 0f 00 	jge %d3,0,80001cac <IfxScuCcu_init+0xa34>
80001c92:	54 23       	ld.w %d3,[%a2]
80001c94:	ff 03 0c 00 	jge %d3,0,80001cac <IfxScuCcu_init+0xa34>
80001c98:	54 23       	ld.w %d3,[%a2]
80001c9a:	ff 03 09 00 	jge %d3,0,80001cac <IfxScuCcu_init+0xa34>
80001c9e:	54 23       	ld.w %d3,[%a2]
80001ca0:	ff 03 06 00 	jge %d3,0,80001cac <IfxScuCcu_init+0xa34>
80001ca4:	c2 82       	add %d2,-8
80001ca6:	df 02 e7 ff 	jne %d2,0,80001c74 <IfxScuCcu_init+0x9fc>
80001caa:	82 17       	mov %d7,1
80001cac:	91 30 00 2f 	movh.a %a2,61443
80001cb0:	d9 22 00 16 	lea %a2,[%a2]24640 <f0036040 <bmhd_3_copy+0x40c34a40>>
80001cb4:	3b 00 00 21 	mov %d2,4096
80001cb8:	74 25       	st.w [%a2],%d5
80001cba:	54 23       	ld.w %d3,[%a2]
80001cbc:	ff 03 1b 00 	jge %d3,0,80001cf2 <IfxScuCcu_init+0xa7a>
80001cc0:	54 23       	ld.w %d3,[%a2]
80001cc2:	ff 03 18 00 	jge %d3,0,80001cf2 <IfxScuCcu_init+0xa7a>
80001cc6:	54 23       	ld.w %d3,[%a2]
80001cc8:	ff 03 15 00 	jge %d3,0,80001cf2 <IfxScuCcu_init+0xa7a>
80001ccc:	54 23       	ld.w %d3,[%a2]
80001cce:	ff 03 12 00 	jge %d3,0,80001cf2 <IfxScuCcu_init+0xa7a>
80001cd2:	54 23       	ld.w %d3,[%a2]
80001cd4:	ff 03 0f 00 	jge %d3,0,80001cf2 <IfxScuCcu_init+0xa7a>
80001cd8:	54 23       	ld.w %d3,[%a2]
80001cda:	ff 03 0c 00 	jge %d3,0,80001cf2 <IfxScuCcu_init+0xa7a>
80001cde:	54 23       	ld.w %d3,[%a2]
80001ce0:	ff 03 09 00 	jge %d3,0,80001cf2 <IfxScuCcu_init+0xa7a>
80001ce4:	54 23       	ld.w %d3,[%a2]
80001ce6:	ff 03 06 00 	jge %d3,0,80001cf2 <IfxScuCcu_init+0xa7a>
80001cea:	c2 82       	add %d2,-8
80001cec:	df 02 e7 ff 	jne %d2,0,80001cba <IfxScuCcu_init+0xa42>
80001cf0:	82 17       	mov %d7,1
80001cf2:	91 30 00 2f 	movh.a %a2,61443
80001cf6:	19 22 0c 16 	ld.w %d2,[%a2]24652 <f003604c <bmhd_3_copy+0x40c34a4c>>
80001cfa:	19 c3 38 00 	ld.w %d3,[%a12]56 <f003604c <bmhd_3_copy+0x40c34a4c>>
80001cfe:	19 c5 3c 00 	ld.w %d5,[%a12]60 <f003604c <bmhd_3_copy+0x40c34a4c>>
80001d02:	c6 23       	xor %d3,%d2
80001d04:	26 53       	and %d3,%d5
80001d06:	c6 32       	xor %d2,%d3
80001d08:	b7 12 01 2f 	insert %d2,%d2,1,30,1
80001d0c:	d9 22 0c 16 	lea %a2,[%a2]24652 <f003604c <bmhd_3_copy+0x40c34a4c>>
80001d10:	3b 00 00 51 	mov %d5,4096
80001d14:	54 23       	ld.w %d3,[%a2]
80001d16:	ff 03 1b 00 	jge %d3,0,80001d4c <IfxScuCcu_init+0xad4>
80001d1a:	54 23       	ld.w %d3,[%a2]
80001d1c:	ff 03 18 00 	jge %d3,0,80001d4c <IfxScuCcu_init+0xad4>
80001d20:	54 23       	ld.w %d3,[%a2]
80001d22:	ff 03 15 00 	jge %d3,0,80001d4c <IfxScuCcu_init+0xad4>
80001d26:	54 23       	ld.w %d3,[%a2]
80001d28:	ff 03 12 00 	jge %d3,0,80001d4c <IfxScuCcu_init+0xad4>
80001d2c:	54 23       	ld.w %d3,[%a2]
80001d2e:	ff 03 0f 00 	jge %d3,0,80001d4c <IfxScuCcu_init+0xad4>
80001d32:	54 23       	ld.w %d3,[%a2]
80001d34:	ff 03 0c 00 	jge %d3,0,80001d4c <IfxScuCcu_init+0xad4>
80001d38:	54 23       	ld.w %d3,[%a2]
80001d3a:	ff 03 09 00 	jge %d3,0,80001d4c <IfxScuCcu_init+0xad4>
80001d3e:	54 23       	ld.w %d3,[%a2]
80001d40:	ff 03 06 00 	jge %d3,0,80001d4c <IfxScuCcu_init+0xad4>
80001d44:	c2 85       	add %d5,-8
80001d46:	df 05 e7 ff 	jne %d5,0,80001d14 <IfxScuCcu_init+0xa9c>
80001d4a:	82 17       	mov %d7,1
80001d4c:	91 30 00 2f 	movh.a %a2,61443
80001d50:	d9 22 0c 16 	lea %a2,[%a2]24652 <f003604c <bmhd_3_copy+0x40c34a4c>>
80001d54:	74 22       	st.w [%a2],%d2
80001d56:	3b 00 00 21 	mov %d2,4096
80001d5a:	54 23       	ld.w %d3,[%a2]
80001d5c:	ff 03 1b 00 	jge %d3,0,80001d92 <IfxScuCcu_init+0xb1a>
80001d60:	54 23       	ld.w %d3,[%a2]
80001d62:	ff 03 18 00 	jge %d3,0,80001d92 <IfxScuCcu_init+0xb1a>
80001d66:	54 23       	ld.w %d3,[%a2]
80001d68:	ff 03 15 00 	jge %d3,0,80001d92 <IfxScuCcu_init+0xb1a>
80001d6c:	54 23       	ld.w %d3,[%a2]
80001d6e:	ff 03 12 00 	jge %d3,0,80001d92 <IfxScuCcu_init+0xb1a>
80001d72:	54 23       	ld.w %d3,[%a2]
80001d74:	ff 03 0f 00 	jge %d3,0,80001d92 <IfxScuCcu_init+0xb1a>
80001d78:	54 23       	ld.w %d3,[%a2]
80001d7a:	ff 03 0c 00 	jge %d3,0,80001d92 <IfxScuCcu_init+0xb1a>
80001d7e:	54 23       	ld.w %d3,[%a2]
80001d80:	ff 03 09 00 	jge %d3,0,80001d92 <IfxScuCcu_init+0xb1a>
80001d84:	54 23       	ld.w %d3,[%a2]
80001d86:	ff 03 06 00 	jge %d3,0,80001d92 <IfxScuCcu_init+0xb1a>
80001d8a:	c2 82       	add %d2,-8
80001d8c:	df 02 e7 ff 	jne %d2,0,80001d5a <IfxScuCcu_init+0xae2>
80001d90:	82 17       	mov %d7,1
80001d92:	91 30 00 2f 	movh.a %a2,61443
80001d96:	19 22 00 26 	ld.w %d2,[%a2]24704 <f0036080 <bmhd_3_copy+0x40c34a80>>
80001d9a:	19 c3 00 10 	ld.w %d3,[%a12]64 <f0036080 <bmhd_3_copy+0x40c34a80>>
80001d9e:	19 c5 04 10 	ld.w %d5,[%a12]68 <f0036080 <bmhd_3_copy+0x40c34a80>>
80001da2:	c6 23       	xor %d3,%d2
80001da4:	26 53       	and %d3,%d5
80001da6:	c6 32       	xor %d2,%d3
80001da8:	d9 22 00 26 	lea %a2,[%a2]24704 <f0036080 <bmhd_3_copy+0x40c34a80>>
80001dac:	19 c3 08 10 	ld.w %d3,[%a12]72 <f0036080 <bmhd_3_copy+0x40c34a80>>
80001db0:	74 22       	st.w [%a2],%d2
80001db2:	91 30 00 2f 	movh.a %a2,61443
80001db6:	19 22 04 26 	ld.w %d2,[%a2]24708 <f0036084 <bmhd_3_copy+0x40c34a84>>
80001dba:	19 c5 0c 10 	ld.w %d5,[%a12]76 <f0036084 <bmhd_3_copy+0x40c34a84>>
80001dbe:	c6 23       	xor %d3,%d2
80001dc0:	26 53       	and %d3,%d5
80001dc2:	c6 32       	xor %d2,%d3
80001dc4:	d9 22 04 26 	lea %a2,[%a2]24708 <f0036084 <bmhd_3_copy+0x40c34a84>>
80001dc8:	19 c3 10 10 	ld.w %d3,[%a12]80 <f0036084 <bmhd_3_copy+0x40c34a84>>
80001dcc:	74 22       	st.w [%a2],%d2
80001dce:	91 30 00 2f 	movh.a %a2,61443
80001dd2:	19 22 08 26 	ld.w %d2,[%a2]24712 <f0036088 <bmhd_3_copy+0x40c34a88>>
80001dd6:	19 c5 14 10 	ld.w %d5,[%a12]84 <f0036088 <bmhd_3_copy+0x40c34a88>>
80001dda:	c6 23       	xor %d3,%d2
80001ddc:	26 53       	and %d3,%d5
80001dde:	c6 32       	xor %d2,%d3
80001de0:	d9 22 08 26 	lea %a2,[%a2]24712 <f0036088 <bmhd_3_copy+0x40c34a88>>
80001de4:	74 22       	st.w [%a2],%d2
80001de6:	91 30 00 2f 	movh.a %a2,61443
80001dea:	19 22 28 a6 	ld.w %d2,[%a2]25256 <f00362a8 <bmhd_3_copy+0x40c34ca8>>
80001dee:	d9 22 28 a6 	lea %a2,[%a2]25256 <f00362a8 <bmhd_3_copy+0x40c34ca8>>
80001df2:	6f 12 09 00 	jz.t %d2,1,80001e04 <IfxScuCcu_init+0xb8c>
80001df6:	54 22       	ld.w %d2,[%a2]
80001df8:	b7 02 10 20 	insert %d2,%d2,0,0,16
80001dfc:	a6 42       	or %d2,%d4
80001dfe:	8f 12 40 21 	or %d2,%d2,1
80001e02:	74 22       	st.w [%a2],%d2
80001e04:	91 30 00 2f 	movh.a %a2,61443
80001e08:	19 22 28 a6 	ld.w %d2,[%a2]25256 <f00362a8 <bmhd_3_copy+0x40c34ca8>>
80001e0c:	d9 22 28 a6 	lea %a2,[%a2]25256 <f00362a8 <bmhd_3_copy+0x40c34ca8>>
80001e10:	b7 02 10 20 	insert %d2,%d2,0,0,16
80001e14:	a6 42       	or %d2,%d4
80001e16:	8f 32 40 21 	or %d2,%d2,3
80001e1a:	74 22       	st.w [%a2],%d2
80001e1c:	54 22       	ld.w %d2,[%a2]
80001e1e:	6f 02 ff 7f 	jz.t %d2,0,80001e1c <IfxScuCcu_init+0xba4>
80001e22:	df 07 a7 fd 	jne %d7,0,80001970 <IfxScuCcu_init+0x6f8>
80001e26:	54 22       	ld.w %d2,[%a2]
80001e28:	39 c0 18 00 	ld.bu %d0,[%a12]24
80001e2c:	37 02 6e 21 	extr.u %d2,%d2,2,14
80001e30:	8f f2 83 21 	xor %d2,%d2,63
80001e34:	df 00 c9 00 	jeq %d0,0,80001fc6 <IfxScuCcu_init+0xd4e>
80001e38:	99 c4 1c 00 	ld.a %a4,[%a12]28
80001e3c:	91 30 00 2f 	movh.a %a2,61443
80001e40:	91 30 00 3f 	movh.a %a3,61443
80001e44:	91 30 00 6f 	movh.a %a6,61443
80001e48:	91 30 00 5f 	movh.a %a5,61443
80001e4c:	91 30 00 cf 	movh.a %a12,61443
80001e50:	91 30 00 7f 	movh.a %a7,61443
80001e54:	8f 22 00 60 	sh %d6,%d2,2
80001e58:	d9 22 28 a6 	lea %a2,[%a2]25256 <f00362a8 <bmhd_3_copy+0x40c34ca8>>
80001e5c:	d9 33 14 06 	lea %a3,[%a3]24596 <f0036014 <bmhd_3_copy+0x40c34a14>>
80001e60:	d9 66 1c 06 	lea %a6,[%a6]24604 <f003601c <bmhd_3_copy+0x40c34a1c>>
80001e64:	d9 55 30 06 	lea %a5,[%a5]24624 <f0036030 <bmhd_3_copy+0x40c34a30>>
80001e68:	d9 cc 18 06 	lea %a12,[%a12]24600 <f0036018 <bmhd_3_copy+0x40c34a18>>
80001e6c:	d9 77 00 06 	lea %a7,[%a7]24576 <f0036000 <bmhd_3_copy+0x40c34a00>>
80001e70:	54 22       	ld.w %d2,[%a2]
80001e72:	6f 12 09 00 	jz.t %d2,1,80001e84 <IfxScuCcu_init+0xc0c>
80001e76:	54 22       	ld.w %d2,[%a2]
80001e78:	b7 02 10 20 	insert %d2,%d2,0,0,16
80001e7c:	a6 62       	or %d2,%d6
80001e7e:	8f 12 40 21 	or %d2,%d2,1
80001e82:	74 22       	st.w [%a2],%d2
80001e84:	54 22       	ld.w %d2,[%a2]
80001e86:	b7 02 10 20 	insert %d2,%d2,0,0,16
80001e8a:	a6 62       	or %d2,%d6
80001e8c:	8f 22 40 21 	or %d2,%d2,2
80001e90:	74 22       	st.w [%a2],%d2
80001e92:	54 23       	ld.w %d3,[%a2]
80001e94:	6f 03 ff ff 	jnz.t %d3,0,80001e92 <IfxScuCcu_init+0xc1a>
80001e98:	3b 00 00 46 	mov %d4,24576
80001e9c:	54 33       	ld.w %d3,[%a3]
80001e9e:	6f 53 1b 80 	jnz.t %d3,5,80001ed4 <IfxScuCcu_init+0xc5c>
80001ea2:	54 33       	ld.w %d3,[%a3]
80001ea4:	6f 53 18 80 	jnz.t %d3,5,80001ed4 <IfxScuCcu_init+0xc5c>
80001ea8:	54 33       	ld.w %d3,[%a3]
80001eaa:	6f 53 15 80 	jnz.t %d3,5,80001ed4 <IfxScuCcu_init+0xc5c>
80001eae:	54 33       	ld.w %d3,[%a3]
80001eb0:	6f 53 12 80 	jnz.t %d3,5,80001ed4 <IfxScuCcu_init+0xc5c>
80001eb4:	54 33       	ld.w %d3,[%a3]
80001eb6:	6f 53 0f 80 	jnz.t %d3,5,80001ed4 <IfxScuCcu_init+0xc5c>
80001eba:	54 33       	ld.w %d3,[%a3]
80001ebc:	6f 53 0c 80 	jnz.t %d3,5,80001ed4 <IfxScuCcu_init+0xc5c>
80001ec0:	54 33       	ld.w %d3,[%a3]
80001ec2:	6f 53 09 80 	jnz.t %d3,5,80001ed4 <IfxScuCcu_init+0xc5c>
80001ec6:	54 33       	ld.w %d3,[%a3]
80001ec8:	6f 53 06 80 	jnz.t %d3,5,80001ed4 <IfxScuCcu_init+0xc5c>
80001ecc:	c2 84       	add %d4,-8
80001ece:	df 04 e7 ff 	jne %d4,0,80001e9c <IfxScuCcu_init+0xc24>
80001ed2:	82 18       	mov %d8,1
80001ed4:	14 42       	ld.bu %d2,[%a4]
80001ed6:	54 63       	ld.w %d3,[%a6]
80001ed8:	37 23 03 30 	insert %d3,%d3,%d2,0,3
80001edc:	74 63       	st.w [%a6],%d3
80001ede:	54 22       	ld.w %d2,[%a2]
80001ee0:	6f 12 09 00 	jz.t %d2,1,80001ef2 <IfxScuCcu_init+0xc7a>
80001ee4:	54 22       	ld.w %d2,[%a2]
80001ee6:	b7 02 10 20 	insert %d2,%d2,0,0,16
80001eea:	a6 62       	or %d2,%d6
80001eec:	8f 12 40 21 	or %d2,%d2,1
80001ef0:	74 22       	st.w [%a2],%d2
80001ef2:	54 22       	ld.w %d2,[%a2]
80001ef4:	b7 02 10 20 	insert %d2,%d2,0,0,16
80001ef8:	a6 62       	or %d2,%d6
80001efa:	8f 32 40 21 	or %d2,%d2,3
80001efe:	74 22       	st.w [%a2],%d2
80001f00:	54 23       	ld.w %d3,[%a2]
80001f02:	6f 03 ff 7f 	jz.t %d3,0,80001f00 <IfxScuCcu_init+0xc88>
80001f06:	54 54       	ld.w %d4,[%a5]
80001f08:	7b f0 cb 34 	movh %d3,19647
80001f0c:	37 04 62 4e 	extr.u %d4,%d4,28,2
80001f10:	19 42 04 00 	ld.w %d2,[%a4]4
80001f14:	1b 03 c2 3b 	addi %d3,%d3,-17376
80001f18:	df 04 36 00 	jeq %d4,0,80001f84 <IfxScuCcu_init+0xd0c>
80001f1c:	82 03       	mov %d3,0
80001f1e:	df 14 33 80 	jne %d4,1,80001f84 <IfxScuCcu_init+0xd0c>
80001f22:	54 c5       	ld.w %d5,[%a12]
80001f24:	7b f0 cb 44 	movh %d4,19647
80001f28:	8f 25 1e 50 	sh %d5,%d5,-30
80001f2c:	1b 04 c2 4b 	addi %d4,%d4,-17376
80001f30:	df 05 11 00 	jeq %d5,0,80001f52 <IfxScuCcu_init+0xcda>
80001f34:	54 c5       	ld.w %d5,[%a12]
80001f36:	7b 90 b9 44 	movh %d4,19353
80001f3a:	8f 25 1e 50 	sh %d5,%d5,-30
80001f3e:	1b 04 68 49 	addi %d4,%d4,-27008
80001f42:	df 15 08 00 	jeq %d5,1,80001f52 <IfxScuCcu_init+0xcda>
80001f46:	54 c5       	ld.w %d5,[%a12]
80001f48:	8f 25 1e 50 	sh %d5,%d5,-30
80001f4c:	df 25 03 00 	jeq %d5,2,80001f52 <IfxScuCcu_init+0xcda>
80001f50:	02 34       	mov %d4,%d3
80001f52:	19 73 18 00 	ld.w %d3,[%a7]24 <f0030018 <bmhd_3_copy+0x40c2ea18>>
80001f56:	19 75 1c 00 	ld.w %d5,[%a7]28 <f003001c <bmhd_3_copy+0x40c2ea1c>>
80001f5a:	37 03 e7 34 	extr.u %d3,%d3,9,7
80001f5e:	19 71 18 00 	ld.w %d1,[%a7]24 <f0030018 <bmhd_3_copy+0x40c2ea18>>
80001f62:	c2 13       	add %d3,1
80001f64:	4b 03 41 31 	itof %d3,%d3
80001f68:	37 01 63 1c 	extr.u %d1,%d1,24,3
80001f6c:	4b 43 41 40 	mul.f %d4,%d3,%d4
80001f70:	8f 75 00 51 	and %d5,%d5,7
80001f74:	1b 11 00 30 	addi %d3,%d1,1
80001f78:	03 35 0a 33 	madd %d3,%d3,%d5,%d3
80001f7c:	4b 03 41 31 	itof %d3,%d3
80001f80:	4b 34 51 30 	div.f %d3,%d4,%d3
80001f84:	54 54       	ld.w %d4,[%a5]
80001f86:	85 f5 10 01 	ld.w %d5,f0001010 <bmhd_3_copy+0x40bffa10>
80001f8a:	8f f4 00 41 	and %d4,%d4,15
80001f8e:	4b 04 41 41 	itof %d4,%d4
80001f92:	4b 43 51 30 	div.f %d3,%d3,%d4
80001f96:	4b 23 41 20 	mul.f %d2,%d3,%d2
80001f9a:	4b 02 71 21 	ftouz %d2,%d2
80001f9e:	85 f3 10 01 	ld.w %d3,f0001010 <bmhd_3_copy+0x40bffa10>
80001fa2:	a2 53       	sub %d3,%d5
80001fa4:	3f 23 fd ff 	jlt.u %d3,%d2,80001f9e <IfxScuCcu_init+0xd26>
80001fa8:	c2 17       	add %d7,1
80001faa:	8f f7 0f 21 	and %d2,%d7,255
80001fae:	d9 44 08 00 	lea %a4,[%a4]8
80001fb2:	3f 02 5f ff 	jlt.u %d2,%d0,80001e70 <IfxScuCcu_init+0xbf8>
80001fb6:	02 82       	mov %d2,%d8
80001fb8:	00 90       	ret 
80001fba:	82 18       	mov %d8,1
80001fbc:	1d ff c4 fb 	j 80001744 <IfxScuCcu_init+0x4cc>
80001fc0:	82 18       	mov %d8,1
80001fc2:	1d ff 47 fb 	j 80001650 <IfxScuCcu_init+0x3d8>
80001fc6:	82 08       	mov %d8,0
80001fc8:	1d ff d5 fc 	j 80001972 <IfxScuCcu_init+0x6fa>

80001fcc <IfxScuWdt_clearCpuEndinit>:
80001fcc:	37 04 70 20 	extr.u %d2,%d4,0,16
80001fd0:	4d c0 e1 3f 	mfcr %d3,$core_id
80001fd4:	7b 30 00 4f 	movh %d4,61443
80001fd8:	8f 73 00 31 	and %d3,%d3,7
80001fdc:	1b c4 24 46 	addi %d4,%d4,25164
80001fe0:	13 c3 20 34 	madd %d3,%d4,%d3,12
80001fe4:	06 22       	sh %d2,2
80001fe6:	60 32       	mov.a %a2,%d3
80001fe8:	54 23       	ld.w %d3,[%a2]
80001fea:	6f 13 09 00 	jz.t %d3,1,80001ffc <IfxScuWdt_clearCpuEndinit+0x30>
80001fee:	54 23       	ld.w %d3,[%a2]
80001ff0:	b7 03 10 30 	insert %d3,%d3,0,0,16
80001ff4:	a6 23       	or %d3,%d2
80001ff6:	8f 13 40 31 	or %d3,%d3,1
80001ffa:	74 23       	st.w [%a2],%d3
80001ffc:	54 23       	ld.w %d3,[%a2]
80001ffe:	b7 03 10 30 	insert %d3,%d3,0,0,16
80002002:	a6 32       	or %d2,%d3
80002004:	8f 22 40 21 	or %d2,%d2,2
80002008:	74 22       	st.w [%a2],%d2
8000200a:	54 22       	ld.w %d2,[%a2]
8000200c:	6f 02 ff ff 	jnz.t %d2,0,8000200a <IfxScuWdt_clearCpuEndinit+0x3e>
80002010:	00 90       	ret 

80002012 <IfxScuWdt_clearSafetyEndinit>:
80002012:	91 30 00 2f 	movh.a %a2,61443
80002016:	37 04 70 20 	extr.u %d2,%d4,0,16
8000201a:	19 23 28 a6 	ld.w %d3,[%a2]25256 <f00362a8 <bmhd_3_copy+0x40c34ca8>>
8000201e:	d9 22 28 a6 	lea %a2,[%a2]25256 <f00362a8 <bmhd_3_copy+0x40c34ca8>>
80002022:	06 22       	sh %d2,2
80002024:	6f 13 09 00 	jz.t %d3,1,80002036 <IfxScuWdt_clearSafetyEndinit+0x24>
80002028:	54 23       	ld.w %d3,[%a2]
8000202a:	b7 03 10 30 	insert %d3,%d3,0,0,16
8000202e:	a6 23       	or %d3,%d2
80002030:	8f 13 40 31 	or %d3,%d3,1
80002034:	74 23       	st.w [%a2],%d3
80002036:	91 30 00 2f 	movh.a %a2,61443
8000203a:	19 23 28 a6 	ld.w %d3,[%a2]25256 <f00362a8 <bmhd_3_copy+0x40c34ca8>>
8000203e:	d9 22 28 a6 	lea %a2,[%a2]25256 <f00362a8 <bmhd_3_copy+0x40c34ca8>>
80002042:	b7 03 10 30 	insert %d3,%d3,0,0,16
80002046:	a6 32       	or %d2,%d3
80002048:	8f 22 40 21 	or %d2,%d2,2
8000204c:	74 22       	st.w [%a2],%d2
8000204e:	54 22       	ld.w %d2,[%a2]
80002050:	6f 02 ff ff 	jnz.t %d2,0,8000204e <IfxScuWdt_clearSafetyEndinit+0x3c>
80002054:	00 90       	ret 

80002056 <IfxScuWdt_disableCpuWatchdog>:
80002056:	37 04 70 20 	extr.u %d2,%d4,0,16
8000205a:	4d c0 e1 3f 	mfcr %d3,$core_id
8000205e:	7b 30 00 4f 	movh %d4,61443
80002062:	1b c4 24 46 	addi %d4,%d4,25164
80002066:	8f 73 00 31 	and %d3,%d3,7
8000206a:	13 c3 20 34 	madd %d3,%d4,%d3,12
8000206e:	8f 22 00 40 	sh %d4,%d2,2
80002072:	60 32       	mov.a %a2,%d3
80002074:	54 23       	ld.w %d3,[%a2]
80002076:	6f 13 09 00 	jz.t %d3,1,80002088 <IfxScuWdt_disableCpuWatchdog+0x32>
8000207a:	54 22       	ld.w %d2,[%a2]
8000207c:	b7 02 10 20 	insert %d2,%d2,0,0,16
80002080:	a6 42       	or %d2,%d4
80002082:	8f 12 40 21 	or %d2,%d2,1
80002086:	74 22       	st.w [%a2],%d2
80002088:	54 22       	ld.w %d2,[%a2]
8000208a:	b7 02 10 20 	insert %d2,%d2,0,0,16
8000208e:	a6 42       	or %d2,%d4
80002090:	8f 22 40 21 	or %d2,%d2,2
80002094:	74 22       	st.w [%a2],%d2
80002096:	54 22       	ld.w %d2,[%a2]
80002098:	6f 02 ff ff 	jnz.t %d2,0,80002096 <IfxScuWdt_disableCpuWatchdog+0x40>
8000209c:	19 22 04 00 	ld.w %d2,[%a2]4
800020a0:	d9 23 04 00 	lea %a3,[%a2]4
800020a4:	b7 12 81 21 	insert %d2,%d2,1,3,1
800020a8:	74 32       	st.w [%a3],%d2
800020aa:	54 22       	ld.w %d2,[%a2]
800020ac:	6f 12 09 00 	jz.t %d2,1,800020be <IfxScuWdt_disableCpuWatchdog+0x68>
800020b0:	54 22       	ld.w %d2,[%a2]
800020b2:	b7 02 10 20 	insert %d2,%d2,0,0,16
800020b6:	a6 42       	or %d2,%d4
800020b8:	8f 12 40 21 	or %d2,%d2,1
800020bc:	74 22       	st.w [%a2],%d2
800020be:	54 22       	ld.w %d2,[%a2]
800020c0:	b7 02 10 20 	insert %d2,%d2,0,0,16
800020c4:	a6 42       	or %d2,%d4
800020c6:	8f 32 40 21 	or %d2,%d2,3
800020ca:	74 22       	st.w [%a2],%d2
800020cc:	54 22       	ld.w %d2,[%a2]
800020ce:	6f 02 ff 7f 	jz.t %d2,0,800020cc <IfxScuWdt_disableCpuWatchdog+0x76>
800020d2:	00 90       	ret 

800020d4 <IfxScuWdt_disableSafetyWatchdog>:
800020d4:	91 30 00 2f 	movh.a %a2,61443
800020d8:	19 23 28 a6 	ld.w %d3,[%a2]25256 <f00362a8 <bmhd_3_copy+0x40c34ca8>>
800020dc:	d9 22 28 a6 	lea %a2,[%a2]25256 <f00362a8 <bmhd_3_copy+0x40c34ca8>>
800020e0:	06 24       	sh %d4,2
800020e2:	6f 13 09 00 	jz.t %d3,1,800020f4 <IfxScuWdt_disableSafetyWatchdog+0x20>
800020e6:	54 22       	ld.w %d2,[%a2]
800020e8:	b7 02 10 20 	insert %d2,%d2,0,0,16
800020ec:	a6 42       	or %d2,%d4
800020ee:	8f 12 40 21 	or %d2,%d2,1
800020f2:	74 22       	st.w [%a2],%d2
800020f4:	91 30 00 2f 	movh.a %a2,61443
800020f8:	19 22 28 a6 	ld.w %d2,[%a2]25256 <f00362a8 <bmhd_3_copy+0x40c34ca8>>
800020fc:	d9 22 28 a6 	lea %a2,[%a2]25256 <f00362a8 <bmhd_3_copy+0x40c34ca8>>
80002100:	b7 02 10 20 	insert %d2,%d2,0,0,16
80002104:	a6 42       	or %d2,%d4
80002106:	8f 22 40 21 	or %d2,%d2,2
8000210a:	74 22       	st.w [%a2],%d2
8000210c:	54 22       	ld.w %d2,[%a2]
8000210e:	6f 02 ff ff 	jnz.t %d2,0,8000210c <IfxScuWdt_disableSafetyWatchdog+0x38>
80002112:	91 30 00 3f 	movh.a %a3,61443
80002116:	19 32 2c a6 	ld.w %d2,[%a3]25260 <f00362ac <bmhd_3_copy+0x40c34cac>>
8000211a:	d9 33 2c a6 	lea %a3,[%a3]25260 <f00362ac <bmhd_3_copy+0x40c34cac>>
8000211e:	b7 12 81 21 	insert %d2,%d2,1,3,1
80002122:	74 32       	st.w [%a3],%d2
80002124:	54 22       	ld.w %d2,[%a2]
80002126:	6f 12 09 00 	jz.t %d2,1,80002138 <IfxScuWdt_disableSafetyWatchdog+0x64>
8000212a:	54 22       	ld.w %d2,[%a2]
8000212c:	b7 02 10 20 	insert %d2,%d2,0,0,16
80002130:	a6 42       	or %d2,%d4
80002132:	8f 12 40 21 	or %d2,%d2,1
80002136:	74 22       	st.w [%a2],%d2
80002138:	91 30 00 2f 	movh.a %a2,61443
8000213c:	19 22 28 a6 	ld.w %d2,[%a2]25256 <f00362a8 <bmhd_3_copy+0x40c34ca8>>
80002140:	d9 22 28 a6 	lea %a2,[%a2]25256 <f00362a8 <bmhd_3_copy+0x40c34ca8>>
80002144:	b7 02 10 20 	insert %d2,%d2,0,0,16
80002148:	a6 42       	or %d2,%d4
8000214a:	8f 32 40 21 	or %d2,%d2,3
8000214e:	74 22       	st.w [%a2],%d2
80002150:	54 22       	ld.w %d2,[%a2]
80002152:	6f 02 ff 7f 	jz.t %d2,0,80002150 <IfxScuWdt_disableSafetyWatchdog+0x7c>
80002156:	00 90       	ret 

80002158 <IfxScuWdt_getCpuWatchdogPassword>:
80002158:	4d c0 e1 2f 	mfcr %d2,$core_id
8000215c:	7b 30 00 3f 	movh %d3,61443
80002160:	1b c3 24 36 	addi %d3,%d3,25164
80002164:	8f 72 00 21 	and %d2,%d2,7
80002168:	13 c2 20 23 	madd %d2,%d3,%d2,12
8000216c:	60 22       	mov.a %a2,%d2
8000216e:	54 22       	ld.w %d2,[%a2]
80002170:	37 02 6e 21 	extr.u %d2,%d2,2,14
80002174:	8f f2 83 21 	xor %d2,%d2,63
80002178:	00 90       	ret 

8000217a <IfxScuWdt_getSafetyWatchdogPassword>:
8000217a:	91 30 00 2f 	movh.a %a2,61443
8000217e:	19 22 28 a6 	ld.w %d2,[%a2]25256 <f00362a8 <bmhd_3_copy+0x40c34ca8>>
80002182:	d9 22 28 a6 	lea %a2,[%a2]25256 <f00362a8 <bmhd_3_copy+0x40c34ca8>>
80002186:	37 02 6e 21 	extr.u %d2,%d2,2,14
8000218a:	8f f2 83 21 	xor %d2,%d2,63
8000218e:	00 90       	ret 

80002190 <IfxScuWdt_setCpuEndinit>:
80002190:	37 04 70 20 	extr.u %d2,%d4,0,16
80002194:	4d c0 e1 3f 	mfcr %d3,$core_id
80002198:	7b 30 00 4f 	movh %d4,61443
8000219c:	8f 73 00 31 	and %d3,%d3,7
800021a0:	1b c4 24 46 	addi %d4,%d4,25164
800021a4:	13 c3 20 34 	madd %d3,%d4,%d3,12
800021a8:	06 22       	sh %d2,2
800021aa:	60 32       	mov.a %a2,%d3
800021ac:	54 23       	ld.w %d3,[%a2]
800021ae:	6f 13 09 00 	jz.t %d3,1,800021c0 <IfxScuWdt_setCpuEndinit+0x30>
800021b2:	54 23       	ld.w %d3,[%a2]
800021b4:	b7 03 10 30 	insert %d3,%d3,0,0,16
800021b8:	a6 23       	or %d3,%d2
800021ba:	8f 13 40 31 	or %d3,%d3,1
800021be:	74 23       	st.w [%a2],%d3
800021c0:	54 23       	ld.w %d3,[%a2]
800021c2:	b7 03 10 30 	insert %d3,%d3,0,0,16
800021c6:	a6 32       	or %d2,%d3
800021c8:	8f 32 40 21 	or %d2,%d2,3
800021cc:	74 22       	st.w [%a2],%d2
800021ce:	54 22       	ld.w %d2,[%a2]
800021d0:	6f 02 ff 7f 	jz.t %d2,0,800021ce <IfxScuWdt_setCpuEndinit+0x3e>
800021d4:	00 90       	ret 

800021d6 <IfxScuWdt_setSafetyEndinit>:
800021d6:	91 30 00 2f 	movh.a %a2,61443
800021da:	37 04 70 20 	extr.u %d2,%d4,0,16
800021de:	19 23 28 a6 	ld.w %d3,[%a2]25256 <f00362a8 <bmhd_3_copy+0x40c34ca8>>
800021e2:	d9 22 28 a6 	lea %a2,[%a2]25256 <f00362a8 <bmhd_3_copy+0x40c34ca8>>
800021e6:	06 22       	sh %d2,2
800021e8:	6f 13 09 00 	jz.t %d3,1,800021fa <IfxScuWdt_setSafetyEndinit+0x24>
800021ec:	54 23       	ld.w %d3,[%a2]
800021ee:	b7 03 10 30 	insert %d3,%d3,0,0,16
800021f2:	a6 23       	or %d3,%d2
800021f4:	8f 13 40 31 	or %d3,%d3,1
800021f8:	74 23       	st.w [%a2],%d3
800021fa:	91 30 00 2f 	movh.a %a2,61443
800021fe:	19 23 28 a6 	ld.w %d3,[%a2]25256 <f00362a8 <bmhd_3_copy+0x40c34ca8>>
80002202:	d9 22 28 a6 	lea %a2,[%a2]25256 <f00362a8 <bmhd_3_copy+0x40c34ca8>>
80002206:	b7 03 10 30 	insert %d3,%d3,0,0,16
8000220a:	a6 32       	or %d2,%d3
8000220c:	8f 32 40 21 	or %d2,%d2,3
80002210:	74 22       	st.w [%a2],%d2
80002212:	54 22       	ld.w %d2,[%a2]
80002214:	6f 02 ff 7f 	jz.t %d2,0,80002212 <IfxScuWdt_setSafetyEndinit+0x3c>
80002218:	00 90       	ret 

8000221a <IfxPort_setPinMode>:
8000221a:	91 40 00 2f 	movh.a %a2,61444
8000221e:	37 04 66 a1 	extr.u %d10,%d4,2,6
80002222:	8f f4 0f c1 	and %d12,%d4,255
80002226:	d9 22 80 0c 	lea %a2,[%a2]-14336 <f003c800 <bmhd_3_copy+0x40c3b200>>
8000222a:	8f 34 00 41 	and %d4,%d4,3
8000222e:	40 4c       	mov.aa %a12,%a4
80002230:	02 59       	mov %d9,%d5
80002232:	d9 4d 10 00 	lea %a13,[%a4]16
80002236:	8f 34 00 80 	sh %d8,%d4,3
8000223a:	7d 24 10 00 	jeq.a %a4,%a2,8000225a <IfxPort_setPinMode+0x40>
8000223e:	06 2a       	sh %d10,2
80002240:	3b f0 0f 40 	mov %d4,255
80002244:	01 da 00 d6 	addsc.a %a13,%a13,%d10,0
80002248:	0f 84 00 40 	sh %d4,%d4,%d8
8000224c:	0f 89 00 20 	sh %d2,%d9,%d8
80002250:	82 03       	mov %d3,0
80002252:	02 43       	mov %d3,%d4
80002254:	49 d2 40 08 	ldmst [%a13]0,%e2
80002258:	00 90       	ret 
8000225a:	6d ff 7f ff 	call 80002158 <IfxScuWdt_getCpuWatchdogPassword>
8000225e:	02 24       	mov %d4,%d2
80002260:	02 2b       	mov %d11,%d2
80002262:	6d ff b5 fe 	call 80001fcc <IfxScuWdt_clearCpuEndinit>
80002266:	19 c2 20 10 	ld.w %d2,[%a12]96
8000226a:	d9 c2 20 10 	lea %a2,[%a12]96
8000226e:	d7 02 01 2c 	insert %d2,%d2,0,%d12,1
80002272:	02 b4       	mov %d4,%d11
80002274:	74 22       	st.w [%a2],%d2
80002276:	6d ff 8d ff 	call 80002190 <IfxScuWdt_setCpuEndinit>
8000227a:	1d ff e2 ff 	j 8000223e <IfxPort_setPinMode+0x24>

8000227e <IfxPort_setPinPadDriver>:
8000227e:	8f f4 0f 91 	and %d9,%d4,255
80002282:	80 4b       	mov.d %d11,%a4
80002284:	02 5a       	mov %d10,%d5
80002286:	6d ff 69 ff 	call 80002158 <IfxScuWdt_getCpuWatchdogPassword>
8000228a:	02 24       	mov %d4,%d2
8000228c:	02 28       	mov %d8,%d2
8000228e:	6d ff 9f fe 	call 80001fcc <IfxScuWdt_clearCpuEndinit>
80002292:	1b 0b 04 40 	addi %d4,%d11,64
80002296:	60 42       	mov.a %a2,%d4
80002298:	8f d9 1f 30 	sh %d3,%d9,-3
8000229c:	8f 79 00 21 	and %d2,%d9,7
800022a0:	06 23       	sh %d3,2
800022a2:	01 23 00 26 	addsc.a %a2,%a2,%d3,0
800022a6:	06 22       	sh %d2,2
800022a8:	3b f0 00 30 	mov %d3,15
800022ac:	0f 23 00 30 	sh %d3,%d3,%d2
800022b0:	0f 2a 00 20 	sh %d2,%d10,%d2
800022b4:	53 12 40 60 	mul.u %e6,%d2,1
800022b8:	02 37       	mov %d7,%d3
800022ba:	49 26 40 08 	ldmst [%a2]0,%e6
800022be:	02 84       	mov %d4,%d8
800022c0:	6d ff 68 ff 	call 80002190 <IfxScuWdt_setCpuEndinit>
800022c4:	00 90       	ret 

800022c6 <IfxGtm_Tom_Pwm_init>:
800022c6:	54 52       	ld.w %d2,[%a5]
800022c8:	19 53 04 00 	ld.w %d3,[%a5]4
800022cc:	60 22       	mov.a %a2,%d2
800022ce:	59 43 04 00 	st.w [%a4]4,%d3
800022d2:	1b 03 01 30 	addi %d3,%d3,16
800022d6:	8f b3 00 30 	sh %d3,%d3,11
800022da:	01 23 00 f6 	addsc.a %a15,%a2,%d3,0
800022de:	19 58 08 00 	ld.w %d8,[%a5]8
800022e2:	1b 03 23 40 	addi %d4,%d3,560
800022e6:	01 24 00 e6 	addsc.a %a14,%a2,%d4,0
800022ea:	74 42       	st.w [%a4],%d2
800022ec:	ec 43       	st.a [%a4]12,%a15
800022ee:	59 48 08 00 	st.w [%a4]8,%d8
800022f2:	8b 88 80 42 	ge %d4,%d8,8
800022f6:	40 4d       	mov.aa %a13,%a4
800022f8:	40 5c       	mov.aa %a12,%a5
800022fa:	a0 02       	mov.a %a2,0
800022fc:	df 04 08 80 	jne %d4,0,8000230c <IfxGtm_Tom_Pwm_init+0x46>
80002300:	60 23       	mov.a %a3,%d2
80002302:	1b 03 03 30 	addi %d3,%d3,48
80002306:	40 e2       	mov.aa %a2,%a14
80002308:	01 33 00 e6 	addsc.a %a14,%a3,%d3,0
8000230c:	b5 d2 14 00 	st.a [%a13]20,%a2
80002310:	b5 de 10 00 	st.a [%a13]16,%a14
80002314:	39 c5 20 00 	ld.bu %d5,[%a12]32
80002318:	df 15 b3 00 	jeq %d5,1,8000247e <IfxGtm_Tom_Pwm_init+0x1b8>
8000231c:	8f 68 00 20 	sh %d2,%d8,6
80002320:	01 f2 00 26 	addsc.a %a2,%a15,%d2,0
80002324:	19 c3 0c 00 	ld.w %d3,[%a12]12
80002328:	54 22       	ld.w %d2,[%a2]
8000232a:	82 06       	mov %d6,0
8000232c:	37 32 03 26 	insert %d2,%d2,%d3,12,3
80002330:	82 15       	mov %d5,1
80002332:	02 84       	mov %d4,%d8
80002334:	74 22       	st.w [%a2],%d2
80002336:	6d 00 1b 01 	call 8000256c <IfxGtm_Tom_Tgc_buildFeatureForChannel>
8000233a:	02 84       	mov %d4,%d8
8000233c:	3b 00 01 60 	mov %d6,16
80002340:	82 15       	mov %d5,1
80002342:	02 29       	mov %d9,%d2
80002344:	6d 00 14 01 	call 8000256c <IfxGtm_Tom_Tgc_buildFeatureForChannel>
80002348:	a6 92       	or %d2,%d9
8000234a:	19 c3 08 00 	ld.w %d3,[%a12]8
8000234e:	59 e2 08 00 	st.w [%a14]8,%d2
80002352:	8f 63 00 20 	sh %d2,%d3,6
80002356:	01 f2 00 26 	addsc.a %a2,%a15,%d2,0
8000235a:	19 c2 14 00 	ld.w %d2,[%a12]20
8000235e:	8b 12 00 42 	eq %d4,%d2,1
80002362:	54 22       	ld.w %d2,[%a2]
80002364:	67 42 0b 20 	ins.t %d2,%d2,11,%d4,0
80002368:	74 22       	st.w [%a2],%d2
8000236a:	99 c4 34 00 	ld.a %a4,[%a12]52
8000236e:	bd 04 0e 00 	jz.a %a4,8000238a <IfxGtm_Tom_Pwm_init+0xc4>
80002372:	19 c5 3c 00 	ld.w %d5,[%a12]60
80002376:	19 c4 38 00 	ld.w %d4,[%a12]56
8000237a:	6d ff d6 f5 	call 80000f26 <IfxGtm_PinMap_setTomTout>
8000237e:	19 c3 08 00 	ld.w %d3,[%a12]8
80002382:	8f 63 00 20 	sh %d2,%d3,6
80002386:	01 f2 00 26 	addsc.a %a2,%a15,%d2,0
8000238a:	39 c5 24 00 	ld.bu %d5,[%a12]36
8000238e:	39 c6 25 00 	ld.bu %d6,[%a12]37
80002392:	df 15 2e 00 	jeq %d5,1,800023ee <IfxGtm_Tom_Pwm_init+0x128>
80002396:	df 16 2c 00 	jeq %d6,1,800023ee <IfxGtm_Tom_Pwm_init+0x128>
8000239a:	39 c5 20 00 	ld.bu %d5,[%a12]32
8000239e:	99 d3 10 00 	ld.a %a3,[%a13]16
800023a2:	b9 c2 12 00 	ld.hu %d2,[%a12]18
800023a6:	b9 c4 10 00 	ld.hu %d4,[%a12]16
800023aa:	df 15 63 00 	jeq %d5,1,80002470 <IfxGtm_Tom_Pwm_init+0x1aa>
800023ae:	59 24 0c 00 	st.w [%a2]12,%d4
800023b2:	59 22 10 00 	st.w [%a2]16,%d2
800023b6:	8f 13 00 20 	sh %d2,%d3,1
800023ba:	8f e2 00 21 	and %d2,%d2,14
800023be:	82 23       	mov %d3,2
800023c0:	82 34       	mov %d4,3
800023c2:	0f 24 00 40 	sh %d4,%d4,%d2
800023c6:	d9 32 00 10 	lea %a2,[%a3]64
800023ca:	0f 23 00 20 	sh %d2,%d3,%d2
800023ce:	82 03       	mov %d3,0
800023d0:	02 43       	mov %d3,%d4
800023d2:	49 22 40 08 	ldmst [%a2]0,%e2
800023d6:	d9 32 08 10 	lea %a2,[%a3]72
800023da:	02 43       	mov %d3,%d4
800023dc:	49 22 40 08 	ldmst [%a2]0,%e2
800023e0:	39 c2 00 10 	ld.bu %d2,[%a12]64
800023e4:	df 12 03 80 	jne %d2,1,800023ea <IfxGtm_Tom_Pwm_init+0x124>
800023e8:	74 32       	st.w [%a3],%d2
800023ea:	82 12       	mov %d2,1
800023ec:	00 90       	ret 
800023ee:	82 04       	mov %d4,0
800023f0:	d9 23 20 00 	lea %a3,[%a2]32
800023f4:	19 22 20 00 	ld.w %d2,[%a2]32
800023f8:	19 c7 28 00 	ld.w %d7,[%a12]40
800023fc:	74 34       	st.w [%a3],%d4
800023fe:	19 24 28 00 	ld.w %d4,[%a2]40
80002402:	d9 23 28 00 	lea %a3,[%a2]40
80002406:	37 74 02 40 	insert %d4,%d4,%d7,0,2
8000240a:	8b 05 20 52 	ne %d5,%d5,0
8000240e:	8b 06 20 62 	ne %d6,%d6,0
80002412:	74 34       	st.w [%a3],%d4
80002414:	59 22 20 00 	st.w [%a2]32,%d2
80002418:	67 52 00 20 	ins.t %d2,%d2,0,%d5,0
8000241c:	67 62 01 20 	ins.t %d2,%d2,1,%d6,0
80002420:	d9 23 20 00 	lea %a3,[%a2]32
80002424:	19 c5 2c 00 	ld.w %d5,[%a12]44
80002428:	74 32       	st.w [%a3],%d2
8000242a:	19 c2 04 00 	ld.w %d2,[%a12]4
8000242e:	8f 32 00 40 	sh %d4,%d2,3
80002432:	8f f3 3f 20 	sha %d2,%d3,-1
80002436:	42 42       	add %d2,%d4
80002438:	7b 40 00 4f 	movh %d4,61444
8000243c:	1b 04 e1 48 	addi %d4,%d4,-29168
80002440:	60 43       	mov.a %a3,%d4
80002442:	06 22       	sh %d2,2
80002444:	01 32 00 36 	addsc.a %a3,%a3,%d2,0
80002448:	39 c4 30 00 	ld.bu %d4,[%a12]48
8000244c:	54 32       	ld.w %d2,[%a3]
8000244e:	37 42 08 20 	insert %d2,%d2,%d4,0,8
80002452:	74 32       	st.w [%a3],%d2
80002454:	54 32       	ld.w %d2,[%a3]
80002456:	37 52 83 25 	insert %d2,%d2,%d5,11,3
8000245a:	74 32       	st.w [%a3],%d2
8000245c:	54 32       	ld.w %d2,[%a3]
8000245e:	b7 12 81 2c 	insert %d2,%d2,1,25,1
80002462:	74 32       	st.w [%a3],%d2
80002464:	54 32       	ld.w %d2,[%a3]
80002466:	b7 12 01 25 	insert %d2,%d2,1,10,1
8000246a:	74 32       	st.w [%a3],%d2
8000246c:	1d ff 97 ff 	j 8000239a <IfxGtm_Tom_Pwm_init+0xd4>
80002470:	59 24 04 00 	st.w [%a2]4,%d4
80002474:	59 22 08 00 	st.w [%a2]8,%d2
80002478:	74 35       	st.w [%a3],%d5
8000247a:	1d ff 9e ff 	j 800023b6 <IfxGtm_Tom_Pwm_init+0xf0>
8000247e:	02 84       	mov %d4,%d8
80002480:	3b 00 01 60 	mov %d6,16
80002484:	6d 00 74 00 	call 8000256c <IfxGtm_Tom_Tgc_buildFeatureForChannel>
80002488:	74 e2       	st.w [%a14],%d2
8000248a:	19 c8 08 00 	ld.w %d8,[%a12]8
8000248e:	99 de 10 00 	ld.a %a14,[%a13]16
80002492:	1d ff 45 ff 	j 8000231c <IfxGtm_Tom_Pwm_init+0x56>

80002496 <IfxGtm_Tom_Pwm_initConfig>:
80002496:	7b a0 00 30 	movh %d3,10
8000249a:	1b 43 01 30 	addi %d3,%d3,20
8000249e:	82 02       	mov %d2,0
800024a0:	f4 45       	st.a [%a4],%a5
800024a2:	59 43 10 00 	st.w [%a4]16,%d3
800024a6:	82 13       	mov %d3,1
800024a8:	59 42 04 00 	st.w [%a4]4,%d2
800024ac:	59 42 08 00 	st.w [%a4]8,%d2
800024b0:	59 43 14 00 	st.w [%a4]20,%d3
800024b4:	e9 43 00 10 	st.b [%a4]64,%d3
800024b8:	82 23       	mov %d3,2
800024ba:	59 42 0c 00 	st.w [%a4]12,%d2
800024be:	e9 42 18 00 	st.b [%a4]24,%d2
800024c2:	59 43 28 00 	st.w [%a4]40,%d3
800024c6:	3b 00 08 30 	mov %d3,128
800024ca:	e9 42 20 00 	st.b [%a4]32,%d2
800024ce:	f9 42 24 00 	st.h [%a4]36,%d2
800024d2:	59 42 2c 00 	st.w [%a4]44,%d2
800024d6:	f9 42 30 00 	st.h [%a4]48,%d2
800024da:	59 42 34 00 	st.w [%a4]52,%d2
800024de:	59 43 38 00 	st.w [%a4]56,%d3
800024e2:	59 42 3c 00 	st.w [%a4]60,%d2
800024e6:	00 90       	ret 

800024e8 <IfxGtm_Tom_Pwm_start>:
800024e8:	19 42 08 00 	ld.w %d2,[%a4]8
800024ec:	99 42 10 00 	ld.a %a2,[%a4]16
800024f0:	06 12       	sh %d2,1
800024f2:	8f e2 00 21 	and %d2,%d2,14
800024f6:	82 23       	mov %d3,2
800024f8:	82 35       	mov %d5,3
800024fa:	0f 25 00 50 	sh %d5,%d5,%d2
800024fe:	d9 23 00 10 	lea %a3,[%a2]64
80002502:	0f 23 00 20 	sh %d2,%d3,%d2
80002506:	82 03       	mov %d3,0
80002508:	02 53       	mov %d3,%d5
8000250a:	49 32 40 08 	ldmst [%a3]0,%e2
8000250e:	df 14 07 80 	jne %d4,1,8000251c <IfxGtm_Tom_Pwm_start+0x34>
80002512:	d9 23 04 10 	lea %a3,[%a2]68
80002516:	02 53       	mov %d3,%d5
80002518:	49 32 40 08 	ldmst [%a3]0,%e2
8000251c:	d9 23 08 10 	lea %a3,[%a2]72
80002520:	02 53       	mov %d3,%d5
80002522:	49 32 40 08 	ldmst [%a3]0,%e2
80002526:	df 14 07 80 	jne %d4,1,80002534 <IfxGtm_Tom_Pwm_start+0x4c>
8000252a:	d9 23 0c 10 	lea %a3,[%a2]76
8000252e:	02 53       	mov %d3,%d5
80002530:	49 32 40 08 	ldmst [%a3]0,%e2
80002534:	82 12       	mov %d2,1
80002536:	74 22       	st.w [%a2],%d2
80002538:	00 90       	ret 

8000253a <IfxGtm_enable>:
8000253a:	80 49       	mov.d %d9,%a4
8000253c:	6d ff 0e fe 	call 80002158 <IfxScuWdt_getCpuWatchdogPassword>
80002540:	02 24       	mov %d4,%d2
80002542:	02 28       	mov %d8,%d2
80002544:	6d ff 44 fd 	call 80001fcc <IfxScuWdt_clearCpuEndinit>
80002548:	60 92       	mov.a %a2,%d9
8000254a:	7b a0 00 20 	movh %d2,10
8000254e:	1b 02 d0 2f 	addi %d2,%d2,-768
80002552:	01 22 00 26 	addsc.a %a2,%a2,%d2,0
80002556:	02 84       	mov %d4,%d8
80002558:	54 22       	ld.w %d2,[%a2]
8000255a:	8f 12 c0 21 	andn %d2,%d2,1
8000255e:	74 22       	st.w [%a2],%d2
80002560:	6d ff 18 fe 	call 80002190 <IfxScuWdt_setCpuEndinit>
80002564:	00 90       	ret 

80002566 <IfxGtm_Cmu_enableClocks>:
80002566:	59 44 00 c0 	st.w [%a4]768,%d4
8000256a:	00 90       	ret 

8000256c <IfxGtm_Tom_Tgc_buildFeatureForChannel>:
8000256c:	8f 14 3e 30 	sha %d3,%d4,-31
80002570:	8f 33 1e 30 	sh %d3,%d3,-29
80002574:	42 34       	add %d4,%d3
80002576:	8f 74 00 41 	and %d4,%d4,7
8000257a:	0b 34 80 30 	sub %d3,%d4,%d3
8000257e:	06 13       	sh %d3,1
80002580:	42 63       	add %d3,%d6
80002582:	8f f3 0f 31 	and %d3,%d3,255
80002586:	8f f5 0f 21 	and %d2,%d5,255
8000258a:	82 24       	mov %d4,2
8000258c:	82 15       	mov %d5,1
8000258e:	0f 34 00 40 	sh %d4,%d4,%d3
80002592:	0f 35 00 50 	sh %d5,%d5,%d3
80002596:	8b 12 20 22 	ne %d2,%d2,1
8000259a:	2b 45 40 22 	sel %d2,%d2,%d5,%d4
8000259e:	00 90       	ret 

800025a0 <IfxCpu_Trap_memoryManagementError>:
800025a0:	20 08       	sub.a %sp,8
800025a2:	02 45       	mov %d5,%d4
800025a4:	40 b2       	mov.aa %a2,%a11
800025a6:	4d c0 e1 4f 	mfcr %d4,$core_id
800025aa:	d2 02       	mov %e2,0
800025ac:	8f 74 00 41 	and %d4,%d4,7
800025b0:	37 53 08 30 	insert %d3,%d3,%d5,0,8
800025b4:	8f 04 01 40 	sh %d4,%d4,16
800025b8:	b7 03 0b 54 	insert %d5,%d3,0,8,11
800025bc:	80 22       	mov.d %d2,%a2
800025be:	0f 45 a0 30 	or %d3,%d5,%d4
800025c2:	89 a2 40 09 	st.d [%sp],%e2
800025c6:	09 a2 c0 09 	ld.da %a2,[%sp]
800025ca:	00 a0       	debug 
800025cc:	0d 00 40 02 	rslcx 
800025d0:	00 80       	rfe 
800025d2:	00 90       	ret 

800025d4 <IfxCpu_Trap_internalProtectionError>:
800025d4:	20 08       	sub.a %sp,8
800025d6:	02 45       	mov %d5,%d4
800025d8:	40 b2       	mov.aa %a2,%a11
800025da:	4d c0 e1 4f 	mfcr %d4,$core_id
800025de:	d2 02       	mov %e2,0
800025e0:	8f 74 00 41 	and %d4,%d4,7
800025e4:	37 53 08 30 	insert %d3,%d3,%d5,0,8
800025e8:	8f 04 01 40 	sh %d4,%d4,16
800025ec:	8f 04 50 51 	or %d5,%d4,256
800025f0:	b7 03 0b 44 	insert %d4,%d3,0,8,11
800025f4:	80 22       	mov.d %d2,%a2
800025f6:	0f 45 a0 30 	or %d3,%d5,%d4
800025fa:	89 a2 40 09 	st.d [%sp],%e2
800025fe:	09 a2 c0 09 	ld.da %a2,[%sp]
80002602:	00 a0       	debug 
80002604:	0d 00 40 02 	rslcx 
80002608:	00 80       	rfe 
8000260a:	00 90       	ret 

8000260c <IfxCpu_Trap_instructionError>:
8000260c:	20 08       	sub.a %sp,8
8000260e:	02 45       	mov %d5,%d4
80002610:	40 b2       	mov.aa %a2,%a11
80002612:	4d c0 e1 4f 	mfcr %d4,$core_id
80002616:	d2 02       	mov %e2,0
80002618:	8f 74 00 41 	and %d4,%d4,7
8000261c:	37 53 08 30 	insert %d3,%d3,%d5,0,8
80002620:	8f 04 01 40 	sh %d4,%d4,16
80002624:	b7 f4 81 54 	insert %d5,%d4,15,9,1
80002628:	b7 03 0b 44 	insert %d4,%d3,0,8,11
8000262c:	80 22       	mov.d %d2,%a2
8000262e:	0f 45 a0 30 	or %d3,%d5,%d4
80002632:	89 a2 40 09 	st.d [%sp],%e2
80002636:	09 a2 c0 09 	ld.da %a2,[%sp]
8000263a:	00 a0       	debug 
8000263c:	0d 00 40 02 	rslcx 
80002640:	00 80       	rfe 
80002642:	00 90       	ret 

80002644 <IfxCpu_Trap_contextManagementError>:
80002644:	20 08       	sub.a %sp,8
80002646:	02 45       	mov %d5,%d4
80002648:	40 b2       	mov.aa %a2,%a11
8000264a:	4d c0 e1 4f 	mfcr %d4,$core_id
8000264e:	d2 02       	mov %e2,0
80002650:	8f 74 00 41 	and %d4,%d4,7
80002654:	37 53 08 30 	insert %d3,%d3,%d5,0,8
80002658:	8f 04 01 40 	sh %d4,%d4,16
8000265c:	b7 f4 02 54 	insert %d5,%d4,15,8,2
80002660:	b7 03 0b 44 	insert %d4,%d3,0,8,11
80002664:	80 22       	mov.d %d2,%a2
80002666:	0f 45 a0 30 	or %d3,%d5,%d4
8000266a:	89 a2 40 09 	st.d [%sp],%e2
8000266e:	09 a2 c0 09 	ld.da %a2,[%sp]
80002672:	00 a0       	debug 
80002674:	0d 00 40 02 	rslcx 
80002678:	00 80       	rfe 
8000267a:	00 90       	ret 

8000267c <IfxCpu_Trap_busError>:
8000267c:	20 08       	sub.a %sp,8
8000267e:	02 45       	mov %d5,%d4
80002680:	40 b2       	mov.aa %a2,%a11
80002682:	4d c0 e1 4f 	mfcr %d4,$core_id
80002686:	d2 02       	mov %e2,0
80002688:	8f 74 00 41 	and %d4,%d4,7
8000268c:	37 53 08 30 	insert %d3,%d3,%d5,0,8
80002690:	8f 04 01 40 	sh %d4,%d4,16
80002694:	b7 f4 01 55 	insert %d5,%d4,15,10,1
80002698:	b7 03 0b 44 	insert %d4,%d3,0,8,11
8000269c:	80 22       	mov.d %d2,%a2
8000269e:	0f 45 a0 30 	or %d3,%d5,%d4
800026a2:	89 a2 40 09 	st.d [%sp],%e2
800026a6:	09 a2 c0 09 	ld.da %a2,[%sp]
800026aa:	00 a0       	debug 
800026ac:	0d 00 40 02 	rslcx 
800026b0:	00 80       	rfe 
800026b2:	00 90       	ret 

800026b4 <IfxCpu_Trap_assertion>:
800026b4:	20 08       	sub.a %sp,8
800026b6:	02 45       	mov %d5,%d4
800026b8:	40 b2       	mov.aa %a2,%a11
800026ba:	4d c0 e1 4f 	mfcr %d4,$core_id
800026be:	d2 02       	mov %e2,0
800026c0:	8f 74 00 41 	and %d4,%d4,7
800026c4:	37 53 08 30 	insert %d3,%d3,%d5,0,8
800026c8:	8f 04 01 40 	sh %d4,%d4,16
800026cc:	3b 00 50 50 	mov %d5,1280
800026d0:	a6 45       	or %d5,%d4
800026d2:	b7 03 0b 44 	insert %d4,%d3,0,8,11
800026d6:	80 22       	mov.d %d2,%a2
800026d8:	0f 45 a0 30 	or %d3,%d5,%d4
800026dc:	89 a2 40 09 	st.d [%sp],%e2
800026e0:	09 a2 c0 09 	ld.da %a2,[%sp]
800026e4:	00 a0       	debug 
800026e6:	0d 00 40 02 	rslcx 
800026ea:	00 80       	rfe 
800026ec:	00 90       	ret 

800026ee <IfxCpu_Trap_systemCall_Cpu0>:
800026ee:	20 08       	sub.a %sp,8
800026f0:	02 45       	mov %d5,%d4
800026f2:	40 b2       	mov.aa %a2,%a11
800026f4:	4d c0 e1 4f 	mfcr %d4,$core_id
800026f8:	d2 02       	mov %e2,0
800026fa:	8f 74 00 41 	and %d4,%d4,7
800026fe:	37 53 08 30 	insert %d3,%d3,%d5,0,8
80002702:	8f 04 01 40 	sh %d4,%d4,16
80002706:	b7 f4 82 54 	insert %d5,%d4,15,9,2
8000270a:	b7 03 0b 44 	insert %d4,%d3,0,8,11
8000270e:	80 22       	mov.d %d2,%a2
80002710:	0f 45 a0 30 	or %d3,%d5,%d4
80002714:	89 a2 40 09 	st.d [%sp],%e2
80002718:	09 a2 c0 09 	ld.da %a2,[%sp]
8000271c:	0d 00 40 02 	rslcx 
80002720:	00 80       	rfe 
80002722:	00 90       	ret 

80002724 <IfxCpu_Trap_nonMaskableInterrupt>:
80002724:	20 08       	sub.a %sp,8
80002726:	02 45       	mov %d5,%d4
80002728:	40 b2       	mov.aa %a2,%a11
8000272a:	4d c0 e1 4f 	mfcr %d4,$core_id
8000272e:	d2 02       	mov %e2,0
80002730:	8f 74 00 41 	and %d4,%d4,7
80002734:	37 53 08 30 	insert %d3,%d3,%d5,0,8
80002738:	8f 04 01 40 	sh %d4,%d4,16
8000273c:	b7 f4 03 54 	insert %d5,%d4,15,8,3
80002740:	b7 03 0b 44 	insert %d4,%d3,0,8,11
80002744:	80 22       	mov.d %d2,%a2
80002746:	0f 45 a0 30 	or %d3,%d5,%d4
8000274a:	89 a2 40 09 	st.d [%sp],%e2
8000274e:	09 a2 c0 09 	ld.da %a2,[%sp]
80002752:	0d 00 40 02 	rslcx 
80002756:	00 80       	rfe 
80002758:	00 90       	ret 

8000275a <IfxCpu_Trap_systemCall_Cpu2>:
8000275a:	20 08       	sub.a %sp,8
8000275c:	02 45       	mov %d5,%d4
8000275e:	40 b2       	mov.aa %a2,%a11
80002760:	4d c0 e1 4f 	mfcr %d4,$core_id
80002764:	d2 02       	mov %e2,0
80002766:	8f 74 00 41 	and %d4,%d4,7
8000276a:	37 53 08 30 	insert %d3,%d3,%d5,0,8
8000276e:	8f 04 01 40 	sh %d4,%d4,16
80002772:	b7 f4 82 54 	insert %d5,%d4,15,9,2
80002776:	b7 03 0b 44 	insert %d4,%d3,0,8,11
8000277a:	80 22       	mov.d %d2,%a2
8000277c:	0f 45 a0 30 	or %d3,%d5,%d4
80002780:	89 a2 40 09 	st.d [%sp],%e2
80002784:	09 a2 c0 09 	ld.da %a2,[%sp]
80002788:	0d 00 40 02 	rslcx 
8000278c:	00 80       	rfe 
8000278e:	00 90       	ret 

80002790 <IfxCpu_Trap_systemCall_Cpu1>:
80002790:	20 08       	sub.a %sp,8
80002792:	02 45       	mov %d5,%d4
80002794:	40 b2       	mov.aa %a2,%a11
80002796:	4d c0 e1 4f 	mfcr %d4,$core_id
8000279a:	d2 02       	mov %e2,0
8000279c:	8f 74 00 41 	and %d4,%d4,7
800027a0:	37 53 08 30 	insert %d3,%d3,%d5,0,8
800027a4:	8f 04 01 40 	sh %d4,%d4,16
800027a8:	b7 f4 82 54 	insert %d5,%d4,15,9,2
800027ac:	b7 03 0b 44 	insert %d4,%d3,0,8,11
800027b0:	80 22       	mov.d %d2,%a2
800027b2:	0f 45 a0 30 	or %d3,%d5,%d4
800027b6:	89 a2 40 09 	st.d [%sp],%e2
800027ba:	09 a2 c0 09 	ld.da %a2,[%sp]
800027be:	0d 00 40 02 	rslcx 
800027c2:	00 80       	rfe 
800027c4:	00 90       	ret 

800027c6 <IfxCpu_waitEvent>:
800027c6:	80 42       	mov.d %d2,%a4
800027c8:	b7 02 1c 20 	insert %d2,%d2,0,0,28
800027cc:	7b 00 00 3d 	movh %d3,53248
800027d0:	40 4c       	mov.aa %a12,%a4
800027d2:	02 48       	mov %d8,%d4
800027d4:	5f 32 0e 80 	jne %d2,%d3,800027f0 <IfxCpu_waitEvent+0x2a>
800027d8:	4d c0 e1 2f 	mfcr %d2,$core_id
800027dc:	80 43       	mov.d %d3,%a4
800027de:	b7 03 0c 3a 	insert %d3,%d3,0,20,12
800027e2:	8f c2 01 20 	sh %d2,%d2,28
800027e6:	b7 f3 03 3e 	insert %d3,%d3,15,28,3
800027ea:	0b 23 80 20 	sub %d2,%d3,%d2
800027ee:	60 2c       	mov.a %a12,%d2
800027f0:	82 04       	mov %d4,0
800027f2:	6d ff 2a f4 	call 80001046 <IfxScuCcu_getSourceFrequency>
800027f6:	91 30 00 2f 	movh.a %a2,61443
800027fa:	19 23 30 06 	ld.w %d3,[%a2]24624 <f0036030 <bmhd_3_copy+0x40c34a30>>
800027fe:	4b 08 61 81 	utof %d8,%d8
80002802:	8f f3 00 31 	and %d3,%d3,15
80002806:	4b 03 41 31 	itof %d3,%d3
8000280a:	d9 22 30 06 	lea %a2,[%a2]24624 <f0036030 <bmhd_3_copy+0x40c34a30>>
8000280e:	4b 32 51 30 	div.f %d3,%d2,%d3
80002812:	7b a0 47 24 	movh %d2,17530
80002816:	85 f4 10 01 	ld.w %d4,f0001010 <bmhd_3_copy+0x40bffa10>
8000281a:	4b 23 51 30 	div.f %d3,%d3,%d2
8000281e:	4b 83 41 30 	mul.f %d3,%d3,%d8
80002822:	4b 03 71 31 	ftouz %d3,%d3
80002826:	1d 00 08 00 	j 80002836 <IfxCpu_waitEvent+0x70>
8000282a:	00 00       	nop 
8000282c:	85 f2 10 01 	ld.w %d2,f0001010 <bmhd_3_copy+0x40bffa10>
80002830:	a2 42       	sub %d2,%d4
80002832:	7f 32 09 80 	jge.u %d2,%d3,80002844 <IfxCpu_waitEvent+0x7e>
80002836:	54 c2       	ld.w %d2,[%a12]
80002838:	8f 72 00 21 	and %d2,%d2,7
8000283c:	df 72 f7 ff 	jne %d2,7,8000282a <IfxCpu_waitEvent+0x64>
80002840:	82 02       	mov %d2,0
80002842:	00 90       	ret 
80002844:	82 12       	mov %d2,1
80002846:	00 90       	ret 

80002848 <IfxCpu_emitEvent>:
80002848:	4d c0 e1 2f 	mfcr %d2,$core_id
8000284c:	82 13       	mov %d3,1
8000284e:	57 30 21 22 	imask %e2,%d3,%d2,1
80002852:	49 42 40 08 	ldmst [%a4]0,%e2
80002856:	00 90       	ret 

80002858 <waitTime>:
80002858:	82 f3       	mov %d3,-1
8000285a:	06 f3       	sh %d3,-1
8000285c:	8b f4 1f 22 	eq %d2,%d4,-1
80002860:	0b 53 00 22 	and.eq %d2,%d3,%d5
80002864:	df 02 16 80 	jne %d2,0,80002890 <waitTime+0x38>
80002868:	4d c0 e2 6f 	mfcr %d6,$icr
8000286c:	37 06 e1 67 	extr.u %d6,%d6,15,1
80002870:	0d 00 40 03 	disable 
80002874:	00 00       	nop 
80002876:	85 f0 10 01 	ld.w %d0,f0001010 <bmhd_3_copy+0x40bffa10>
8000287a:	85 f2 2c 01 	ld.w %d2,f000102c <bmhd_3_copy+0x40bffa2c>
8000287e:	02 03       	mov %d3,%d0
80002880:	b7 02 81 2f 	insert %d2,%d2,0,31,1
80002884:	df 06 2e 80 	jne %d6,0,800028e0 <waitTime+0x88>
80002888:	0b 34 40 40 	addx %d4,%d4,%d3
8000288c:	0b 25 50 50 	addc %d5,%d5,%d2
80002890:	82 f0       	mov %d0,-1
80002892:	06 f0       	sh %d0,-1
80002894:	1d 00 1d 00 	j 800028ce <waitTime+0x76>
80002898:	4d c0 e2 7f 	mfcr %d7,$icr
8000289c:	37 07 e1 77 	extr.u %d7,%d7,15,1
800028a0:	0d 00 40 03 	disable 
800028a4:	00 00       	nop 
800028a6:	85 f6 10 01 	ld.w %d6,f0001010 <bmhd_3_copy+0x40bffa10>
800028aa:	85 f2 2c 01 	ld.w %d2,f000102c <bmhd_3_copy+0x40bffa2c>
800028ae:	8f 06 40 61 	or %d6,%d6,0
800028b2:	b7 02 81 3f 	insert %d3,%d2,0,31,1
800028b6:	df 07 04 00 	jeq %d7,0,800028be <waitTime+0x66>
800028ba:	0d 00 00 03 	enable 
800028be:	0b 35 00 21 	eq %d2,%d5,%d3
800028c2:	0b 46 30 22 	and.lt.u %d2,%d6,%d4
800028c6:	0b 53 90 22 	or.lt %d2,%d3,%d5
800028ca:	df 02 0a 00 	jeq %d2,0,800028de <waitTime+0x86>
800028ce:	8b f4 3f 22 	ne %d2,%d4,-1
800028d2:	0b 50 80 22 	or.ne %d2,%d0,%d5
800028d6:	df 02 e1 ff 	jne %d2,0,80002898 <waitTime+0x40>
800028da:	1d 00 00 00 	j 800028da <waitTime+0x82>
800028de:	00 90       	ret 
800028e0:	0d 00 00 03 	enable 
800028e4:	1d ff d2 ff 	j 80002888 <waitTime+0x30>

800028e8 <Ifx_Ssw_serviceCpuWatchdog>:
800028e8:	37 04 70 20 	extr.u %d2,%d4,0,16
800028ec:	54 43       	ld.w %d3,[%a4]
800028ee:	06 22       	sh %d2,2
800028f0:	6f 13 09 00 	jz.t %d3,1,80002902 <Ifx_Ssw_serviceCpuWatchdog+0x1a>
800028f4:	54 43       	ld.w %d3,[%a4]
800028f6:	b7 03 10 30 	insert %d3,%d3,0,0,16
800028fa:	a6 23       	or %d3,%d2
800028fc:	8f 13 40 31 	or %d3,%d3,1
80002900:	74 43       	st.w [%a4],%d3
80002902:	54 43       	ld.w %d3,[%a4]
80002904:	b7 03 10 30 	insert %d3,%d3,0,0,16
80002908:	a6 32       	or %d2,%d3
8000290a:	8f 32 40 21 	or %d2,%d2,3
8000290e:	74 42       	st.w [%a4],%d2
80002910:	54 42       	ld.w %d2,[%a4]
80002912:	00 90       	ret 

80002914 <Ifx_Ssw_serviceSafetyWatchdog>:
80002914:	91 30 00 2f 	movh.a %a2,61443
80002918:	37 04 70 20 	extr.u %d2,%d4,0,16
8000291c:	19 23 28 a6 	ld.w %d3,[%a2]25256 <f00362a8 <bmhd_3_copy+0x40c34ca8>>
80002920:	d9 22 28 a6 	lea %a2,[%a2]25256 <f00362a8 <bmhd_3_copy+0x40c34ca8>>
80002924:	06 22       	sh %d2,2
80002926:	6f 13 09 00 	jz.t %d3,1,80002938 <Ifx_Ssw_serviceSafetyWatchdog+0x24>
8000292a:	54 23       	ld.w %d3,[%a2]
8000292c:	b7 03 10 30 	insert %d3,%d3,0,0,16
80002930:	a6 23       	or %d3,%d2
80002932:	8f 13 40 31 	or %d3,%d3,1
80002936:	74 23       	st.w [%a2],%d3
80002938:	91 30 00 2f 	movh.a %a2,61443
8000293c:	19 23 28 a6 	ld.w %d3,[%a2]25256 <f00362a8 <bmhd_3_copy+0x40c34ca8>>
80002940:	d9 22 28 a6 	lea %a2,[%a2]25256 <f00362a8 <bmhd_3_copy+0x40c34ca8>>
80002944:	b7 03 10 30 	insert %d3,%d3,0,0,16
80002948:	a6 32       	or %d2,%d3
8000294a:	8f 32 40 21 	or %d2,%d2,3
8000294e:	74 22       	st.w [%a2],%d2
80002950:	54 22       	ld.w %d2,[%a2]
80002952:	00 90       	ret 

80002954 <Ifx_Ssw_disableCpuWatchdog>:
80002954:	37 04 70 20 	extr.u %d2,%d4,0,16
80002958:	4d c0 e1 3f 	mfcr %d3,$core_id
8000295c:	82 54       	mov %d4,5
8000295e:	8f 73 00 31 	and %d3,%d3,7
80002962:	0b 43 90 31 	min.u %d3,%d3,%d4
80002966:	7b 30 00 4f 	movh %d4,61443
8000296a:	1b c4 24 46 	addi %d4,%d4,25164
8000296e:	13 c3 20 34 	madd %d3,%d4,%d3,12
80002972:	8f 22 00 40 	sh %d4,%d2,2
80002976:	60 32       	mov.a %a2,%d3
80002978:	54 23       	ld.w %d3,[%a2]
8000297a:	6f 13 09 00 	jz.t %d3,1,8000298c <Ifx_Ssw_disableCpuWatchdog+0x38>
8000297e:	54 22       	ld.w %d2,[%a2]
80002980:	b7 02 10 20 	insert %d2,%d2,0,0,16
80002984:	a6 42       	or %d2,%d4
80002986:	8f 12 40 21 	or %d2,%d2,1
8000298a:	74 22       	st.w [%a2],%d2
8000298c:	54 22       	ld.w %d2,[%a2]
8000298e:	d9 23 04 00 	lea %a3,[%a2]4
80002992:	b7 02 10 20 	insert %d2,%d2,0,0,16
80002996:	a6 42       	or %d2,%d4
80002998:	8f 22 40 21 	or %d2,%d2,2
8000299c:	74 22       	st.w [%a2],%d2
8000299e:	54 22       	ld.w %d2,[%a2]
800029a0:	19 22 04 00 	ld.w %d2,[%a2]4
800029a4:	b7 12 81 21 	insert %d2,%d2,1,3,1
800029a8:	74 32       	st.w [%a3],%d2
800029aa:	54 22       	ld.w %d2,[%a2]
800029ac:	6f 12 09 00 	jz.t %d2,1,800029be <Ifx_Ssw_disableCpuWatchdog+0x6a>
800029b0:	54 22       	ld.w %d2,[%a2]
800029b2:	b7 02 10 20 	insert %d2,%d2,0,0,16
800029b6:	a6 42       	or %d2,%d4
800029b8:	8f 12 40 21 	or %d2,%d2,1
800029bc:	74 22       	st.w [%a2],%d2
800029be:	54 22       	ld.w %d2,[%a2]
800029c0:	b7 02 10 20 	insert %d2,%d2,0,0,16
800029c4:	a6 42       	or %d2,%d4
800029c6:	8f 32 40 21 	or %d2,%d2,3
800029ca:	74 22       	st.w [%a2],%d2
800029cc:	54 22       	ld.w %d2,[%a2]
800029ce:	00 90       	ret 

800029d0 <Ifx_Ssw_enableCpuWatchdog>:
800029d0:	37 04 70 20 	extr.u %d2,%d4,0,16
800029d4:	4d c0 e1 3f 	mfcr %d3,$core_id
800029d8:	82 54       	mov %d4,5
800029da:	8f 73 00 31 	and %d3,%d3,7
800029de:	0b 43 90 31 	min.u %d3,%d3,%d4
800029e2:	7b 30 00 4f 	movh %d4,61443
800029e6:	1b c4 24 46 	addi %d4,%d4,25164
800029ea:	13 c3 20 34 	madd %d3,%d4,%d3,12
800029ee:	8f 22 00 40 	sh %d4,%d2,2
800029f2:	60 32       	mov.a %a2,%d3
800029f4:	54 23       	ld.w %d3,[%a2]
800029f6:	6f 13 09 00 	jz.t %d3,1,80002a08 <Ifx_Ssw_enableCpuWatchdog+0x38>
800029fa:	54 22       	ld.w %d2,[%a2]
800029fc:	b7 02 10 20 	insert %d2,%d2,0,0,16
80002a00:	a6 42       	or %d2,%d4
80002a02:	8f 12 40 21 	or %d2,%d2,1
80002a06:	74 22       	st.w [%a2],%d2
80002a08:	54 22       	ld.w %d2,[%a2]
80002a0a:	d9 23 04 00 	lea %a3,[%a2]4
80002a0e:	b7 02 10 20 	insert %d2,%d2,0,0,16
80002a12:	a6 42       	or %d2,%d4
80002a14:	8f 22 40 21 	or %d2,%d2,2
80002a18:	74 22       	st.w [%a2],%d2
80002a1a:	54 22       	ld.w %d2,[%a2]
80002a1c:	19 22 04 00 	ld.w %d2,[%a2]4
80002a20:	8f 82 c0 21 	andn %d2,%d2,8
80002a24:	74 32       	st.w [%a3],%d2
80002a26:	54 22       	ld.w %d2,[%a2]
80002a28:	6f 12 09 00 	jz.t %d2,1,80002a3a <Ifx_Ssw_enableCpuWatchdog+0x6a>
80002a2c:	54 22       	ld.w %d2,[%a2]
80002a2e:	b7 02 10 20 	insert %d2,%d2,0,0,16
80002a32:	a6 42       	or %d2,%d4
80002a34:	8f 12 40 21 	or %d2,%d2,1
80002a38:	74 22       	st.w [%a2],%d2
80002a3a:	54 22       	ld.w %d2,[%a2]
80002a3c:	b7 02 10 20 	insert %d2,%d2,0,0,16
80002a40:	a6 42       	or %d2,%d4
80002a42:	8f 32 40 21 	or %d2,%d2,3
80002a46:	74 22       	st.w [%a2],%d2
80002a48:	54 22       	ld.w %d2,[%a2]
80002a4a:	00 90       	ret 

80002a4c <Ifx_Ssw_disableSafetyWatchdog>:
80002a4c:	91 30 00 2f 	movh.a %a2,61443
80002a50:	19 23 28 a6 	ld.w %d3,[%a2]25256 <f00362a8 <bmhd_3_copy+0x40c34ca8>>
80002a54:	d9 22 28 a6 	lea %a2,[%a2]25256 <f00362a8 <bmhd_3_copy+0x40c34ca8>>
80002a58:	06 24       	sh %d4,2
80002a5a:	6f 13 09 00 	jz.t %d3,1,80002a6c <Ifx_Ssw_disableSafetyWatchdog+0x20>
80002a5e:	54 22       	ld.w %d2,[%a2]
80002a60:	b7 02 10 20 	insert %d2,%d2,0,0,16
80002a64:	a6 42       	or %d2,%d4
80002a66:	8f 12 40 21 	or %d2,%d2,1
80002a6a:	74 22       	st.w [%a2],%d2
80002a6c:	91 30 00 2f 	movh.a %a2,61443
80002a70:	19 22 28 a6 	ld.w %d2,[%a2]25256 <f00362a8 <bmhd_3_copy+0x40c34ca8>>
80002a74:	91 30 00 3f 	movh.a %a3,61443
80002a78:	b7 02 10 20 	insert %d2,%d2,0,0,16
80002a7c:	d9 33 2c a6 	lea %a3,[%a3]25260 <f00362ac <bmhd_3_copy+0x40c34cac>>
80002a80:	a6 42       	or %d2,%d4
80002a82:	8f 22 40 21 	or %d2,%d2,2
80002a86:	d9 22 28 a6 	lea %a2,[%a2]25256 <f00362a8 <bmhd_3_copy+0x40c34ca8>>
80002a8a:	74 22       	st.w [%a2],%d2
80002a8c:	54 22       	ld.w %d2,[%a2]
80002a8e:	54 32       	ld.w %d2,[%a3]
80002a90:	b7 12 81 21 	insert %d2,%d2,1,3,1
80002a94:	74 32       	st.w [%a3],%d2
80002a96:	54 22       	ld.w %d2,[%a2]
80002a98:	6f 12 09 00 	jz.t %d2,1,80002aaa <Ifx_Ssw_disableSafetyWatchdog+0x5e>
80002a9c:	54 22       	ld.w %d2,[%a2]
80002a9e:	b7 02 10 20 	insert %d2,%d2,0,0,16
80002aa2:	a6 42       	or %d2,%d4
80002aa4:	8f 12 40 21 	or %d2,%d2,1
80002aa8:	74 22       	st.w [%a2],%d2
80002aaa:	91 30 00 2f 	movh.a %a2,61443
80002aae:	19 22 28 a6 	ld.w %d2,[%a2]25256 <f00362a8 <bmhd_3_copy+0x40c34ca8>>
80002ab2:	d9 22 28 a6 	lea %a2,[%a2]25256 <f00362a8 <bmhd_3_copy+0x40c34ca8>>
80002ab6:	b7 02 10 20 	insert %d2,%d2,0,0,16
80002aba:	a6 42       	or %d2,%d4
80002abc:	8f 32 40 21 	or %d2,%d2,3
80002ac0:	74 22       	st.w [%a2],%d2
80002ac2:	54 22       	ld.w %d2,[%a2]
80002ac4:	00 90       	ret 

80002ac6 <Ifx_Ssw_enableSafetyWatchdog>:
80002ac6:	91 30 00 2f 	movh.a %a2,61443
80002aca:	19 23 28 a6 	ld.w %d3,[%a2]25256 <f00362a8 <bmhd_3_copy+0x40c34ca8>>
80002ace:	d9 22 28 a6 	lea %a2,[%a2]25256 <f00362a8 <bmhd_3_copy+0x40c34ca8>>
80002ad2:	06 24       	sh %d4,2
80002ad4:	6f 13 09 00 	jz.t %d3,1,80002ae6 <Ifx_Ssw_enableSafetyWatchdog+0x20>
80002ad8:	54 22       	ld.w %d2,[%a2]
80002ada:	b7 02 10 20 	insert %d2,%d2,0,0,16
80002ade:	a6 42       	or %d2,%d4
80002ae0:	8f 12 40 21 	or %d2,%d2,1
80002ae4:	74 22       	st.w [%a2],%d2
80002ae6:	91 30 00 2f 	movh.a %a2,61443
80002aea:	19 22 28 a6 	ld.w %d2,[%a2]25256 <f00362a8 <bmhd_3_copy+0x40c34ca8>>
80002aee:	91 30 00 3f 	movh.a %a3,61443
80002af2:	b7 02 10 20 	insert %d2,%d2,0,0,16
80002af6:	d9 33 2c a6 	lea %a3,[%a3]25260 <f00362ac <bmhd_3_copy+0x40c34cac>>
80002afa:	a6 42       	or %d2,%d4
80002afc:	8f 22 40 21 	or %d2,%d2,2
80002b00:	d9 22 28 a6 	lea %a2,[%a2]25256 <f00362a8 <bmhd_3_copy+0x40c34ca8>>
80002b04:	74 22       	st.w [%a2],%d2
80002b06:	54 22       	ld.w %d2,[%a2]
80002b08:	54 32       	ld.w %d2,[%a3]
80002b0a:	8f 82 c0 21 	andn %d2,%d2,8
80002b0e:	74 32       	st.w [%a3],%d2
80002b10:	54 22       	ld.w %d2,[%a2]
80002b12:	6f 12 09 00 	jz.t %d2,1,80002b24 <Ifx_Ssw_enableSafetyWatchdog+0x5e>
80002b16:	54 22       	ld.w %d2,[%a2]
80002b18:	b7 02 10 20 	insert %d2,%d2,0,0,16
80002b1c:	a6 42       	or %d2,%d4
80002b1e:	8f 12 40 21 	or %d2,%d2,1
80002b22:	74 22       	st.w [%a2],%d2
80002b24:	91 30 00 2f 	movh.a %a2,61443
80002b28:	19 22 28 a6 	ld.w %d2,[%a2]25256 <f00362a8 <bmhd_3_copy+0x40c34ca8>>
80002b2c:	d9 22 28 a6 	lea %a2,[%a2]25256 <f00362a8 <bmhd_3_copy+0x40c34ca8>>
80002b30:	b7 02 10 20 	insert %d2,%d2,0,0,16
80002b34:	a6 42       	or %d2,%d4
80002b36:	8f 32 40 21 	or %d2,%d2,3
80002b3a:	74 22       	st.w [%a2],%d2
80002b3c:	54 22       	ld.w %d2,[%a2]
80002b3e:	00 90       	ret 

80002b40 <Ifx_Ssw_startCore>:
80002b40:	7b 20 00 20 	movh %d2,2
80002b44:	1b 82 e0 2f 	addi %d2,%d2,-504
80002b48:	01 42 00 26 	addsc.a %a2,%a4,%d2,0
80002b4c:	54 22       	ld.w %d2,[%a2]
80002b4e:	37 24 01 20 	insert %d2,%d4,%d2,0,1
80002b52:	74 22       	st.w [%a2],%d2
80002b54:	7b 20 00 20 	movh %d2,2
80002b58:	1b 42 e1 2f 	addi %d2,%d2,-492
80002b5c:	01 42 00 26 	addsc.a %a2,%a4,%d2,0
80002b60:	54 22       	ld.w %d2,[%a2]
80002b62:	ef 82 05 00 	jz.t %d2,24,80002b6c <Ifx_Ssw_startCore+0x2c>
80002b66:	b7 02 01 2c 	insert %d2,%d2,0,24,1
80002b6a:	74 22       	st.w [%a2],%d2
80002b6c:	00 90       	ret 

80002b6e <Ifx_Ssw_getStmFrequency>:
80002b6e:	91 30 00 2f 	movh.a %a2,61443
80002b72:	19 22 18 06 	ld.w %d2,[%a2]24600 <f0036018 <bmhd_3_copy+0x40c34a18>>
80002b76:	7b 90 b9 44 	movh %d4,19353
80002b7a:	8f 22 1e 20 	sh %d2,%d2,-30
80002b7e:	c2 f2       	add %d2,-1
80002b80:	d9 22 18 06 	lea %a2,[%a2]24600 <f0036018 <bmhd_3_copy+0x40c34a18>>
80002b84:	1b 04 68 49 	addi %d4,%d4,-27008
80002b88:	bf 22 06 80 	jlt.u %d2,2,80002b94 <Ifx_Ssw_getStmFrequency+0x26>
80002b8c:	7b f0 cb 44 	movh %d4,19647
80002b90:	1b 04 c2 4b 	addi %d4,%d4,-17376
80002b94:	91 30 00 2f 	movh.a %a2,61443
80002b98:	19 22 30 06 	ld.w %d2,[%a2]24624 <f0036030 <bmhd_3_copy+0x40c34a30>>
80002b9c:	7b f0 cb 34 	movh %d3,19647
80002ba0:	37 02 62 2e 	extr.u %d2,%d2,28,2
80002ba4:	d9 22 30 06 	lea %a2,[%a2]24624 <f0036030 <bmhd_3_copy+0x40c34a30>>
80002ba8:	1b 03 c2 3b 	addi %d3,%d3,-17376
80002bac:	df 02 22 00 	jeq %d2,0,80002bf0 <Ifx_Ssw_getStmFrequency+0x82>
80002bb0:	91 30 00 2f 	movh.a %a2,61443
80002bb4:	19 22 18 06 	ld.w %d2,[%a2]24600 <f0036018 <bmhd_3_copy+0x40c34a18>>
80002bb8:	d9 22 18 06 	lea %a2,[%a2]24600 <f0036018 <bmhd_3_copy+0x40c34a18>>
80002bbc:	54 25       	ld.w %d5,[%a2]
80002bbe:	37 02 e7 24 	extr.u %d2,%d2,9,7
80002bc2:	91 30 00 2f 	movh.a %a2,61443
80002bc6:	c2 12       	add %d2,1
80002bc8:	19 26 1c 06 	ld.w %d6,[%a2]24604 <f003601c <bmhd_3_copy+0x40c34a1c>>
80002bcc:	4b 02 41 21 	itof %d2,%d2
80002bd0:	37 05 63 5c 	extr.u %d5,%d5,24,3
80002bd4:	8f 76 00 61 	and %d6,%d6,7
80002bd8:	4b 42 41 30 	mul.f %d3,%d2,%d4
80002bdc:	1b 16 00 20 	addi %d2,%d6,1
80002be0:	03 25 0a 22 	madd %d2,%d2,%d5,%d2
80002be4:	d9 22 1c 06 	lea %a2,[%a2]24604 <f003601c <bmhd_3_copy+0x40c34a1c>>
80002be8:	4b 02 41 21 	itof %d2,%d2
80002bec:	4b 23 51 30 	div.f %d3,%d3,%d2
80002bf0:	91 30 00 2f 	movh.a %a2,61443
80002bf4:	19 22 30 06 	ld.w %d2,[%a2]24624 <f0036030 <bmhd_3_copy+0x40c34a30>>
80002bf8:	d9 22 30 06 	lea %a2,[%a2]24624 <f0036030 <bmhd_3_copy+0x40c34a30>>
80002bfc:	8f f2 00 21 	and %d2,%d2,15
80002c00:	4b 02 41 21 	itof %d2,%d2
80002c04:	4b 23 51 20 	div.f %d2,%d3,%d2
80002c08:	00 90       	ret 

80002c0a <Ifx_Ssw_doCppInit>:
80002c0a:	91 00 00 28 	movh.a %a2,32768
80002c0e:	19 22 b8 10 	ld.w %d2,[%a2]2168 <80000878 <__clear_table>>
80002c12:	20 08       	sub.a %sp,8
80002c14:	d9 27 b8 10 	lea %a7,[%a2]2168
80002c18:	74 a2       	st.w [%sp],%d2
80002c1a:	19 72 04 00 	ld.w %d2,[%a7]4
80002c1e:	df f2 6d 00 	jeq %d2,-1,80002cf8 <Ifx_Ssw_doCppInit+0xee>
80002c22:	82 05       	mov %d5,0
80002c24:	d9 77 08 00 	lea %a7,[%a7]8
80002c28:	a0 02       	mov.a %a2,0
80002c2a:	a0 03       	mov.a %a3,0
80002c2c:	02 54       	mov %d4,%d5
80002c2e:	02 56       	mov %d6,%d5
80002c30:	8f d2 1f 30 	sh %d3,%d2,-3
80002c34:	60 34       	mov.a %a4,%d3
80002c36:	d9 46 ff ff 	lea %a6,[%a4]-1
80002c3a:	df 03 44 00 	jeq %d3,0,80002cc2 <Ifx_Ssw_doCppInit+0xb8>
80002c3e:	8f 73 00 31 	and %d3,%d3,7
80002c42:	df 03 20 01 	jeq %d3,0,80002e82 <Ifx_Ssw_doCppInit+0x278>
80002c46:	df 13 36 00 	jeq %d3,1,80002cb2 <Ifx_Ssw_doCppInit+0xa8>
80002c4a:	df 23 2d 00 	jeq %d3,2,80002ca4 <Ifx_Ssw_doCppInit+0x9a>
80002c4e:	df 33 24 00 	jeq %d3,3,80002c96 <Ifx_Ssw_doCppInit+0x8c>
80002c52:	df 43 1b 00 	jeq %d3,4,80002c88 <Ifx_Ssw_doCppInit+0x7e>
80002c56:	df 53 12 00 	jeq %d3,5,80002c7a <Ifx_Ssw_doCppInit+0x70>
80002c5a:	df 63 09 00 	jeq %d3,6,80002c6c <Ifx_Ssw_doCppInit+0x62>
80002c5e:	d4 a4       	ld.a %a4,[%sp]
80002c60:	b0 f6       	add.a %a6,-1
80002c62:	d9 45 08 00 	lea %a5,[%a4]8
80002c66:	f4 a5       	st.a [%sp],%a5
80002c68:	89 42 c0 09 	st.da [%a4],%a2
80002c6c:	d4 a4       	ld.a %a4,[%sp]
80002c6e:	b0 f6       	add.a %a6,-1
80002c70:	d9 45 08 00 	lea %a5,[%a4]8
80002c74:	f4 a5       	st.a [%sp],%a5
80002c76:	89 42 c0 09 	st.da [%a4],%a2
80002c7a:	d4 a4       	ld.a %a4,[%sp]
80002c7c:	b0 f6       	add.a %a6,-1
80002c7e:	d9 45 08 00 	lea %a5,[%a4]8
80002c82:	f4 a5       	st.a [%sp],%a5
80002c84:	89 42 c0 09 	st.da [%a4],%a2
80002c88:	d4 a4       	ld.a %a4,[%sp]
80002c8a:	b0 f6       	add.a %a6,-1
80002c8c:	d9 45 08 00 	lea %a5,[%a4]8
80002c90:	f4 a5       	st.a [%sp],%a5
80002c92:	89 42 c0 09 	st.da [%a4],%a2
80002c96:	d4 a4       	ld.a %a4,[%sp]
80002c98:	b0 f6       	add.a %a6,-1
80002c9a:	d9 45 08 00 	lea %a5,[%a4]8
80002c9e:	f4 a5       	st.a [%sp],%a5
80002ca0:	89 42 c0 09 	st.da [%a4],%a2
80002ca4:	d4 a4       	ld.a %a4,[%sp]
80002ca6:	b0 f6       	add.a %a6,-1
80002ca8:	d9 45 08 00 	lea %a5,[%a4]8
80002cac:	f4 a5       	st.a [%sp],%a5
80002cae:	89 42 c0 09 	st.da [%a4],%a2
80002cb2:	d4 a4       	ld.a %a4,[%sp]
80002cb4:	d9 45 08 00 	lea %a5,[%a4]8
80002cb8:	f4 a5       	st.a [%sp],%a5
80002cba:	89 42 c0 09 	st.da [%a4],%a2
80002cbe:	fd 60 e2 00 	loop %a6,80002e82 <Ifx_Ssw_doCppInit+0x278>
80002cc2:	6f 22 07 00 	jz.t %d2,2,80002cd0 <Ifx_Ssw_doCppInit+0xc6>
80002cc6:	d4 a4       	ld.a %a4,[%sp]
80002cc8:	d9 45 04 00 	lea %a5,[%a4]4
80002ccc:	f4 a5       	st.a [%sp],%a5
80002cce:	74 45       	st.w [%a4],%d5
80002cd0:	6f 12 07 00 	jz.t %d2,1,80002cde <Ifx_Ssw_doCppInit+0xd4>
80002cd4:	d4 a4       	ld.a %a4,[%sp]
80002cd6:	d9 45 02 00 	lea %a5,[%a4]2
80002cda:	f4 a5       	st.a [%sp],%a5
80002cdc:	b4 44       	st.h [%a4],%d4
80002cde:	6f 02 04 00 	jz.t %d2,0,80002ce6 <Ifx_Ssw_doCppInit+0xdc>
80002ce2:	d4 a4       	ld.a %a4,[%sp]
80002ce4:	34 46       	st.b [%a4],%d6
80002ce6:	40 74       	mov.aa %a4,%a7
80002ce8:	54 42       	ld.w %d2,[%a4]
80002cea:	d9 77 08 00 	lea %a7,[%a7]8
80002cee:	74 a2       	st.w [%sp],%d2
80002cf0:	19 72 fc ff 	ld.w %d2,[%a7]-4
80002cf4:	df f2 9e ff 	jne %d2,-1,80002c30 <Ifx_Ssw_doCppInit+0x26>
80002cf8:	91 00 00 38 	movh.a %a3,32768
80002cfc:	19 32 80 40 	ld.w %d2,[%a3]2304 <80000900 <__copy_table>>
80002d00:	d9 36 80 40 	lea %a6,[%a3]2304 <80000900 <__copy_table>>
80002d04:	59 a2 04 00 	st.w [%sp]4 <80000900 <__copy_table>>,%d2
80002d08:	19 62 04 00 	ld.w %d2,[%a6]4 <80000900 <__copy_table>>
80002d0c:	74 a2       	st.w [%sp],%d2
80002d0e:	19 62 08 00 	ld.w %d2,[%a6]8 <80000900 <__copy_table>>
80002d12:	df f2 b5 00 	jeq %d2,-1,80002e7c <Ifx_Ssw_doCppInit+0x272>
80002d16:	d9 66 0c 00 	lea %a6,[%a6]12
80002d1a:	8f d2 1f 30 	sh %d3,%d2,-3
80002d1e:	60 32       	mov.a %a2,%d3
80002d20:	d9 25 ff ff 	lea %a5,[%a2]-1
80002d24:	df 03 7c 00 	jeq %d3,0,80002e1c <Ifx_Ssw_doCppInit+0x212>
80002d28:	8f 73 00 31 	and %d3,%d3,7
80002d2c:	df 03 e1 00 	jeq %d3,0,80002eee <Ifx_Ssw_doCppInit+0x2e4>
80002d30:	df 13 66 00 	jeq %d3,1,80002dfc <Ifx_Ssw_doCppInit+0x1f2>
80002d34:	df 23 55 00 	jeq %d3,2,80002dde <Ifx_Ssw_doCppInit+0x1d4>
80002d38:	df 33 44 00 	jeq %d3,3,80002dc0 <Ifx_Ssw_doCppInit+0x1b6>
80002d3c:	df 43 33 00 	jeq %d3,4,80002da2 <Ifx_Ssw_doCppInit+0x198>
80002d40:	df 53 22 00 	jeq %d3,5,80002d84 <Ifx_Ssw_doCppInit+0x17a>
80002d44:	df 63 11 00 	jeq %d3,6,80002d66 <Ifx_Ssw_doCppInit+0x15c>
80002d48:	99 a2 04 00 	ld.a %a2,[%sp]4
80002d4c:	b0 f5       	add.a %a5,-1
80002d4e:	d9 23 08 00 	lea %a3,[%a2]8
80002d52:	b5 a3 04 00 	st.a [%sp]4,%a3
80002d56:	d4 a4       	ld.a %a4,[%sp]
80002d58:	d9 43 08 00 	lea %a3,[%a4]8
80002d5c:	f4 a3       	st.a [%sp],%a3
80002d5e:	09 22 c0 09 	ld.da %a2,[%a2]
80002d62:	89 42 c0 09 	st.da [%a4],%a2
80002d66:	99 a2 04 00 	ld.a %a2,[%sp]4
80002d6a:	b0 f5       	add.a %a5,-1
80002d6c:	d9 23 08 00 	lea %a3,[%a2]8
80002d70:	b5 a3 04 00 	st.a [%sp]4,%a3
80002d74:	d4 a4       	ld.a %a4,[%sp]
80002d76:	d9 43 08 00 	lea %a3,[%a4]8
80002d7a:	f4 a3       	st.a [%sp],%a3
80002d7c:	09 22 c0 09 	ld.da %a2,[%a2]
80002d80:	89 42 c0 09 	st.da [%a4],%a2
80002d84:	99 a2 04 00 	ld.a %a2,[%sp]4
80002d88:	b0 f5       	add.a %a5,-1
80002d8a:	d9 23 08 00 	lea %a3,[%a2]8
80002d8e:	b5 a3 04 00 	st.a [%sp]4,%a3
80002d92:	d4 a4       	ld.a %a4,[%sp]
80002d94:	d9 43 08 00 	lea %a3,[%a4]8
80002d98:	f4 a3       	st.a [%sp],%a3
80002d9a:	09 22 c0 09 	ld.da %a2,[%a2]
80002d9e:	89 42 c0 09 	st.da [%a4],%a2
80002da2:	99 a2 04 00 	ld.a %a2,[%sp]4
80002da6:	b0 f5       	add.a %a5,-1
80002da8:	d9 23 08 00 	lea %a3,[%a2]8
80002dac:	b5 a3 04 00 	st.a [%sp]4,%a3
80002db0:	d4 a4       	ld.a %a4,[%sp]
80002db2:	d9 43 08 00 	lea %a3,[%a4]8
80002db6:	f4 a3       	st.a [%sp],%a3
80002db8:	09 22 c0 09 	ld.da %a2,[%a2]
80002dbc:	89 42 c0 09 	st.da [%a4],%a2
80002dc0:	99 a2 04 00 	ld.a %a2,[%sp]4
80002dc4:	b0 f5       	add.a %a5,-1
80002dc6:	d9 23 08 00 	lea %a3,[%a2]8
80002dca:	b5 a3 04 00 	st.a [%sp]4,%a3
80002dce:	d4 a4       	ld.a %a4,[%sp]
80002dd0:	d9 43 08 00 	lea %a3,[%a4]8
80002dd4:	f4 a3       	st.a [%sp],%a3
80002dd6:	09 22 c0 09 	ld.da %a2,[%a2]
80002dda:	89 42 c0 09 	st.da [%a4],%a2
80002dde:	99 a2 04 00 	ld.a %a2,[%sp]4
80002de2:	b0 f5       	add.a %a5,-1
80002de4:	d9 23 08 00 	lea %a3,[%a2]8
80002de8:	b5 a3 04 00 	st.a [%sp]4,%a3
80002dec:	d4 a4       	ld.a %a4,[%sp]
80002dee:	d9 43 08 00 	lea %a3,[%a4]8
80002df2:	f4 a3       	st.a [%sp],%a3
80002df4:	09 22 c0 09 	ld.da %a2,[%a2]
80002df8:	89 42 c0 09 	st.da [%a4],%a2
80002dfc:	99 a2 04 00 	ld.a %a2,[%sp]4
80002e00:	d9 23 08 00 	lea %a3,[%a2]8
80002e04:	b5 a3 04 00 	st.a [%sp]4,%a3
80002e08:	d4 a4       	ld.a %a4,[%sp]
80002e0a:	d9 43 08 00 	lea %a3,[%a4]8
80002e0e:	f4 a3       	st.a [%sp],%a3
80002e10:	09 22 c0 09 	ld.da %a2,[%a2]
80002e14:	89 42 c0 09 	st.da [%a4],%a2
80002e18:	fd 50 6b 00 	loop %a5,80002eee <Ifx_Ssw_doCppInit+0x2e4>
80002e1c:	6f 22 0e 00 	jz.t %d2,2,80002e38 <Ifx_Ssw_doCppInit+0x22e>
80002e20:	99 a2 04 00 	ld.a %a2,[%sp]4
80002e24:	d9 23 04 00 	lea %a3,[%a2]4
80002e28:	b5 a3 04 00 	st.a [%sp]4,%a3
80002e2c:	d4 a3       	ld.a %a3,[%sp]
80002e2e:	54 23       	ld.w %d3,[%a2]
80002e30:	d9 34 04 00 	lea %a4,[%a3]4
80002e34:	f4 a4       	st.a [%sp],%a4
80002e36:	74 33       	st.w [%a3],%d3
80002e38:	6f 12 0f 00 	jz.t %d2,1,80002e56 <Ifx_Ssw_doCppInit+0x24c>
80002e3c:	99 a3 04 00 	ld.a %a3,[%sp]4
80002e40:	d9 32 02 00 	lea %a2,[%a3]2
80002e44:	b5 a2 04 00 	st.a [%sp]4,%a2
80002e48:	d4 a2       	ld.a %a2,[%sp]
80002e4a:	b9 33 00 00 	ld.hu %d3,[%a3]0
80002e4e:	d9 24 02 00 	lea %a4,[%a2]2
80002e52:	f4 a4       	st.a [%sp],%a4
80002e54:	b4 23       	st.h [%a2],%d3
80002e56:	6f 02 07 00 	jz.t %d2,0,80002e64 <Ifx_Ssw_doCppInit+0x25a>
80002e5a:	99 a3 04 00 	ld.a %a3,[%sp]4
80002e5e:	d4 a2       	ld.a %a2,[%sp]
80002e60:	14 32       	ld.bu %d2,[%a3]
80002e62:	34 22       	st.b [%a2],%d2
80002e64:	54 62       	ld.w %d2,[%a6]
80002e66:	59 a2 04 00 	st.w [%sp]4,%d2
80002e6a:	d9 66 0c 00 	lea %a6,[%a6]12
80002e6e:	19 62 f8 ff 	ld.w %d2,[%a6]-8
80002e72:	74 a2       	st.w [%sp],%d2
80002e74:	19 62 fc ff 	ld.w %d2,[%a6]-4
80002e78:	df f2 51 ff 	jne %d2,-1,80002d1a <Ifx_Ssw_doCppInit+0x110>
80002e7c:	6d ff e4 ef 	call 80000e44 <_init>
80002e80:	00 90       	ret 
80002e82:	d4 a4       	ld.a %a4,[%sp]
80002e84:	b0 86       	add.a %a6,-8
80002e86:	80 63       	mov.d %d3,%a6
80002e88:	d9 45 08 00 	lea %a5,[%a4]8
80002e8c:	f4 a5       	st.a [%sp],%a5
80002e8e:	89 42 c0 09 	st.da [%a4],%a2
80002e92:	d4 a4       	ld.a %a4,[%sp]
80002e94:	d9 45 08 00 	lea %a5,[%a4]8
80002e98:	f4 a5       	st.a [%sp],%a5
80002e9a:	89 42 c0 09 	st.da [%a4],%a2
80002e9e:	d4 a4       	ld.a %a4,[%sp]
80002ea0:	d9 45 08 00 	lea %a5,[%a4]8
80002ea4:	f4 a5       	st.a [%sp],%a5
80002ea6:	89 42 c0 09 	st.da [%a4],%a2
80002eaa:	d4 a4       	ld.a %a4,[%sp]
80002eac:	d9 45 08 00 	lea %a5,[%a4]8
80002eb0:	f4 a5       	st.a [%sp],%a5
80002eb2:	89 42 c0 09 	st.da [%a4],%a2
80002eb6:	d4 a4       	ld.a %a4,[%sp]
80002eb8:	d9 45 08 00 	lea %a5,[%a4]8
80002ebc:	f4 a5       	st.a [%sp],%a5
80002ebe:	89 42 c0 09 	st.da [%a4],%a2
80002ec2:	d4 a4       	ld.a %a4,[%sp]
80002ec4:	d9 45 08 00 	lea %a5,[%a4]8
80002ec8:	f4 a5       	st.a [%sp],%a5
80002eca:	89 42 c0 09 	st.da [%a4],%a2
80002ece:	d4 a4       	ld.a %a4,[%sp]
80002ed0:	d9 45 08 00 	lea %a5,[%a4]8
80002ed4:	f4 a5       	st.a [%sp],%a5
80002ed6:	89 42 c0 09 	st.da [%a4],%a2
80002eda:	d4 a4       	ld.a %a4,[%sp]
80002edc:	d9 45 08 00 	lea %a5,[%a4]8
80002ee0:	f4 a5       	st.a [%sp],%a5
80002ee2:	89 42 c0 09 	st.da [%a4],%a2
80002ee6:	df f3 ce ff 	jne %d3,-1,80002e82 <Ifx_Ssw_doCppInit+0x278>
80002eea:	1d ff ec fe 	j 80002cc2 <Ifx_Ssw_doCppInit+0xb8>
80002eee:	99 a2 04 00 	ld.a %a2,[%sp]4
80002ef2:	b0 85       	add.a %a5,-8
80002ef4:	80 53       	mov.d %d3,%a5
80002ef6:	d9 23 08 00 	lea %a3,[%a2]8
80002efa:	b5 a3 04 00 	st.a [%sp]4,%a3
80002efe:	d4 a4       	ld.a %a4,[%sp]
80002f00:	d9 43 08 00 	lea %a3,[%a4]8
80002f04:	f4 a3       	st.a [%sp],%a3
80002f06:	09 22 c0 09 	ld.da %a2,[%a2]
80002f0a:	89 42 c0 09 	st.da [%a4],%a2
80002f0e:	99 a2 04 00 	ld.a %a2,[%sp]4
80002f12:	d9 23 08 00 	lea %a3,[%a2]8
80002f16:	b5 a3 04 00 	st.a [%sp]4,%a3
80002f1a:	d4 a4       	ld.a %a4,[%sp]
80002f1c:	d9 43 08 00 	lea %a3,[%a4]8
80002f20:	f4 a3       	st.a [%sp],%a3
80002f22:	09 22 c0 09 	ld.da %a2,[%a2]
80002f26:	89 42 c0 09 	st.da [%a4],%a2
80002f2a:	99 a2 04 00 	ld.a %a2,[%sp]4
80002f2e:	d9 23 08 00 	lea %a3,[%a2]8
80002f32:	b5 a3 04 00 	st.a [%sp]4,%a3
80002f36:	d4 a4       	ld.a %a4,[%sp]
80002f38:	d9 43 08 00 	lea %a3,[%a4]8
80002f3c:	f4 a3       	st.a [%sp],%a3
80002f3e:	09 22 c0 09 	ld.da %a2,[%a2]
80002f42:	89 42 c0 09 	st.da [%a4],%a2
80002f46:	99 a2 04 00 	ld.a %a2,[%sp]4
80002f4a:	d9 23 08 00 	lea %a3,[%a2]8
80002f4e:	b5 a3 04 00 	st.a [%sp]4,%a3
80002f52:	d4 a4       	ld.a %a4,[%sp]
80002f54:	d9 43 08 00 	lea %a3,[%a4]8
80002f58:	f4 a3       	st.a [%sp],%a3
80002f5a:	09 22 c0 09 	ld.da %a2,[%a2]
80002f5e:	89 42 c0 09 	st.da [%a4],%a2
80002f62:	99 a2 04 00 	ld.a %a2,[%sp]4
80002f66:	d9 23 08 00 	lea %a3,[%a2]8
80002f6a:	b5 a3 04 00 	st.a [%sp]4,%a3
80002f6e:	d4 a4       	ld.a %a4,[%sp]
80002f70:	d9 43 08 00 	lea %a3,[%a4]8
80002f74:	f4 a3       	st.a [%sp],%a3
80002f76:	09 22 c0 09 	ld.da %a2,[%a2]
80002f7a:	89 42 c0 09 	st.da [%a4],%a2
80002f7e:	99 a2 04 00 	ld.a %a2,[%sp]4
80002f82:	d9 23 08 00 	lea %a3,[%a2]8
80002f86:	b5 a3 04 00 	st.a [%sp]4,%a3
80002f8a:	d4 a4       	ld.a %a4,[%sp]
80002f8c:	d9 43 08 00 	lea %a3,[%a4]8
80002f90:	f4 a3       	st.a [%sp],%a3
80002f92:	09 22 c0 09 	ld.da %a2,[%a2]
80002f96:	89 42 c0 09 	st.da [%a4],%a2
80002f9a:	99 a2 04 00 	ld.a %a2,[%sp]4
80002f9e:	d9 23 08 00 	lea %a3,[%a2]8
80002fa2:	b5 a3 04 00 	st.a [%sp]4,%a3
80002fa6:	d4 a4       	ld.a %a4,[%sp]
80002fa8:	d9 43 08 00 	lea %a3,[%a4]8
80002fac:	f4 a3       	st.a [%sp],%a3
80002fae:	09 22 c0 09 	ld.da %a2,[%a2]
80002fb2:	89 42 c0 09 	st.da [%a4],%a2
80002fb6:	99 a2 04 00 	ld.a %a2,[%sp]4
80002fba:	d9 23 08 00 	lea %a3,[%a2]8
80002fbe:	b5 a3 04 00 	st.a [%sp]4,%a3
80002fc2:	d4 a4       	ld.a %a4,[%sp]
80002fc4:	d9 43 08 00 	lea %a3,[%a4]8
80002fc8:	f4 a3       	st.a [%sp],%a3
80002fca:	09 22 c0 09 	ld.da %a2,[%a2]
80002fce:	89 42 c0 09 	st.da [%a4],%a2
80002fd2:	df f3 8e ff 	jne %d3,-1,80002eee <Ifx_Ssw_doCppInit+0x2e4>
80002fd6:	1d ff 23 ff 	j 80002e1c <Ifx_Ssw_doCppInit+0x212>

80002fda <Ifx_Ssw_Pms_Init>:
80002fda:	40 ae       	mov.aa %a14,%sp
80002fdc:	91 30 00 2f 	movh.a %a2,61443
80002fe0:	d9 22 00 06 	lea %a2,[%a2]24576 <f0036000 <bmhd_3_copy+0x40c34a00>>
80002fe4:	19 22 34 a0 	ld.w %d2,[%a2]692 <f00302b4 <bmhd_3_copy+0x40c2ecb4>>
80002fe8:	37 02 6e 21 	extr.u %d2,%d2,2,14
80002fec:	91 50 02 2f 	movh.a %a2,61477
80002ff0:	d9 22 2c 08 	lea %a2,[%a2]-32724 <f024802c <bmhd_3_copy+0x40e46a2c>>
80002ff4:	54 23       	ld.w %d3,[%a2]
80002ff6:	6f 03 04 80 	jnz.t %d3,0,80002ffe <Ifx_Ssw_Pms_Init+0x24>
80002ffa:	dc 0b       	ji %a11
80002ffc:	00 90       	ret 
80002ffe:	91 00 00 28 	movh.a %a2,32768
80003002:	d9 23 78 c0 	lea %a3,[%a2]1848 <80000738 <IfxPmsEvr_cfgSequenceDefault>>
80003006:	99 34 04 00 	ld.a %a4,[%a3]4 <80000738 <IfxPmsEvr_cfgSequenceDefault>>
8000300a:	39 26 78 c0 	ld.bu %d6,[%a2]1848 <80000738 <IfxPmsEvr_cfgSequenceDefault>>
8000300e:	80 43       	mov.d %d3,%a4
80003010:	13 c6 20 63 	madd %d6,%d3,%d6,12
80003014:	7f 63 f3 ff 	jge.u %d3,%d6,80002ffa <Ifx_Ssw_Pms_Init+0x20>
80003018:	8f f2 83 21 	xor %d2,%d2,63
8000301c:	06 22       	sh %d2,2
8000301e:	7b c0 ff 1f 	movh %d1,65532
80003022:	a6 21       	or %d1,%d2
80003024:	7b c0 ff 0f 	movh %d0,65532
80003028:	c2 20       	add %d0,2
8000302a:	a6 20       	or %d0,%d2
8000302c:	82 18       	mov %d8,1
8000302e:	91 30 00 3f 	movh.a %a3,61443
80003032:	d9 33 00 06 	lea %a3,[%a3]24576 <f0036000 <bmhd_3_copy+0x40c34a00>>
80003036:	02 84       	mov %d4,%d8
80003038:	91 50 02 5f 	movh.a %a5,61477
8000303c:	d9 55 08 48 	lea %a5,[%a5]-32504 <f0248108 <bmhd_3_copy+0x40e46b08>>
80003040:	82 09       	mov %d9,0
80003042:	7b c0 bf 74 	movh %d7,19452
80003046:	1b 07 52 7c 	addi %d7,%d7,-15072
8000304a:	c5 f6 10 01 	lea %a6,f0001010 <bmhd_3_copy+0x40bffa10>
8000304e:	59 31 34 a0 	st.w [%a3]692 <f00302b4 <bmhd_3_copy+0x40c2ecb4>>,%d1
80003052:	19 32 34 a0 	ld.w %d2,[%a3]692 <f00302b4 <bmhd_3_copy+0x40c2ecb4>>
80003056:	37 02 e1 20 	extr.u %d2,%d2,1,1
8000305a:	5f 42 fc 7f 	jeq %d2,%d4,80003052 <Ifx_Ssw_Pms_Init+0x78>
8000305e:	19 43 04 00 	ld.w %d3,[%a4]4
80003062:	14 42       	ld.bu %d2,[%a4]
80003064:	13 c2 20 23 	madd %d2,%d3,%d2,12
80003068:	7f 23 15 80 	jge.u %d3,%d2,80003092 <Ifx_Ssw_Pms_Init+0xb8>
8000306c:	60 32       	mov.a %a2,%d3
8000306e:	d4 27       	ld.a %a7,[%a2]
80003070:	54 72       	ld.w %d2,[%a7]
80003072:	19 25 08 00 	ld.w %d5,[%a2]8
80003076:	0f 52 e0 20 	andn %d2,%d2,%d5
8000307a:	19 25 04 00 	ld.w %d5,[%a2]4
8000307e:	a6 52       	or %d2,%d5
80003080:	74 72       	st.w [%a7],%d2
80003082:	d9 22 0c 00 	lea %a2,[%a2]12
80003086:	14 42       	ld.bu %d2,[%a4]
80003088:	13 c2 20 23 	madd %d2,%d3,%d2,12
8000308c:	80 25       	mov.d %d5,%a2
8000308e:	3f 25 f0 ff 	jlt.u %d5,%d2,8000306e <Ifx_Ssw_Pms_Init+0x94>
80003092:	54 52       	ld.w %d2,[%a5]
80003094:	b7 12 01 2f 	insert %d2,%d2,1,30,1
80003098:	74 52       	st.w [%a5],%d2
8000309a:	59 30 34 a0 	st.w [%a3]692 <f00302b4 <bmhd_3_copy+0x40c2ecb4>>,%d0
8000309e:	19 32 34 a0 	ld.w %d2,[%a3]692 <f00302b4 <bmhd_3_copy+0x40c2ecb4>>
800030a2:	6f 12 fe 7f 	jz.t %d2,1,8000309e <Ifx_Ssw_Pms_Init+0xc4>
800030a6:	3b f0 0f 20 	mov %d2,255
800030aa:	1d 00 05 00 	j 800030b4 <Ifx_Ssw_Pms_Init+0xda>
800030ae:	c2 f2       	add %d2,-1
800030b0:	df 02 1c 00 	jeq %d2,0,800030e8 <Ifx_Ssw_Pms_Init+0x10e>
800030b4:	54 53       	ld.w %d3,[%a5]
800030b6:	37 03 61 3f 	extr.u %d3,%d3,30,1
800030ba:	5f 43 fa 7f 	jeq %d3,%d4,800030ae <Ifx_Ssw_Pms_Init+0xd4>
800030be:	19 42 08 00 	ld.w %d2,[%a4]8
800030c2:	4b 27 41 20 	mul.f %d2,%d7,%d2
800030c6:	4b 02 71 31 	ftouz %d3,%d2
800030ca:	54 65       	ld.w %d5,[%a6]
800030cc:	54 62       	ld.w %d2,[%a6]
800030ce:	a2 52       	sub %d2,%d5
800030d0:	3f 32 fe ff 	jlt.u %d2,%d3,800030cc <Ifx_Ssw_Pms_Init+0xf2>
800030d4:	d9 44 0c 00 	lea %a4,[%a4]12
800030d8:	80 42       	mov.d %d2,%a4
800030da:	3f 62 ba ff 	jlt.u %d2,%d6,8000304e <Ifx_Ssw_Pms_Init+0x74>
800030de:	df 08 8e ff 	jne %d8,0,80002ffa <Ifx_Ssw_Pms_Init+0x20>
800030e2:	00 a0       	debug 
800030e4:	dc 0b       	ji %a11
800030e6:	00 90       	ret 
800030e8:	02 98       	mov %d8,%d9
800030ea:	1d ff ea ff 	j 800030be <Ifx_Ssw_Pms_Init+0xe4>

800030ee <Ifx_Ssw_Pms_InitCheck>:
800030ee:	40 ae       	mov.aa %a14,%sp
800030f0:	91 50 02 2f 	movh.a %a2,61477
800030f4:	d9 22 2c 08 	lea %a2,[%a2]-32724 <f024802c <bmhd_3_copy+0x40e46a2c>>
800030f8:	54 22       	ld.w %d2,[%a2]
800030fa:	6f 02 04 80 	jnz.t %d2,0,80003102 <Ifx_Ssw_Pms_InitCheck+0x14>
800030fe:	dc 0b       	ji %a11
80003100:	00 90       	ret 
80003102:	91 00 00 28 	movh.a %a2,32768
80003106:	39 25 68 80 	ld.bu %d5,[%a2]1576 <80000628 <IfxPmsEvr_checkRegCfgDefault>>
8000310a:	bf 15 1d 00 	jlt %d5,1,80003144 <Ifx_Ssw_Pms_InitCheck+0x56>
8000310e:	91 00 00 28 	movh.a %a2,32768
80003112:	99 22 6c 80 	ld.a %a2,[%a2]1580 <8000062c <IfxPmsEvr_checkRegCfgDefault+0x4>>
80003116:	82 12       	mov %d2,1
80003118:	82 03       	mov %d3,0
8000311a:	d4 23       	ld.a %a3,[%a2]
8000311c:	54 34       	ld.w %d4,[%a3]
8000311e:	19 26 08 00 	ld.w %d6,[%a2]8
80003122:	26 64       	and %d4,%d6
80003124:	19 26 04 00 	ld.w %d6,[%a2]4
80003128:	0b 64 00 41 	eq %d4,%d4,%d6
8000312c:	ab 02 80 24 	sel %d2,%d4,%d2,0
80003130:	c2 13       	add %d3,1
80003132:	d9 22 0c 00 	lea %a2,[%a2]12
80003136:	5f 53 f2 ff 	jne %d3,%d5,8000311a <Ifx_Ssw_Pms_InitCheck+0x2c>
8000313a:	df 12 05 00 	jeq %d2,1,80003144 <Ifx_Ssw_Pms_InitCheck+0x56>
8000313e:	00 a0       	debug 
80003140:	dc 0b       	ji %a11
80003142:	00 90       	ret 
80003144:	91 50 02 2f 	movh.a %a2,61477
80003148:	d9 22 2c 08 	lea %a2,[%a2]-32724 <f024802c <bmhd_3_copy+0x40e46a2c>>
8000314c:	54 22       	ld.w %d2,[%a2]
8000314e:	ef 52 d8 ff 	jnz.t %d2,21,800030fe <Ifx_Ssw_Pms_InitCheck+0x10>
80003152:	00 a0       	debug 
80003154:	1d ff f6 ff 	j 80003140 <Ifx_Ssw_Pms_InitCheck+0x52>

80003158 <initLED>:
80003158:	91 40 00 4f 	movh.a %a4,61444
8000315c:	3b 00 08 50 	mov %d5,128
80003160:	82 24       	mov %d4,2
80003162:	d9 44 00 0a 	lea %a4,[%a4]-24576 <f003a000 <bmhd_3_copy+0x40c38a00>>
80003166:	6d ff 5a f8 	call 8000221a <IfxPort_setPinMode>
8000316a:	91 40 00 2f 	movh.a %a2,61444
8000316e:	82 42       	mov %d2,4
80003170:	d9 22 00 0a 	lea %a2,[%a2]-24576 <f003a000 <bmhd_3_copy+0x40c38a00>>
80003174:	01 22 00 26 	addsc.a %a2,%a2,%d2,0
80003178:	74 22       	st.w [%a2],%d2
8000317a:	00 90       	ret 

8000317c <blinkLED>:
8000317c:	7b 40 00 20 	movh %d2,4
80003180:	c2 42       	add %d2,4
80003182:	91 40 00 2f 	movh.a %a2,61444
80003186:	d9 22 00 0a 	lea %a2,[%a2]-24576 <f003a000 <bmhd_3_copy+0x40c38a00>>
8000318a:	82 04       	mov %d4,0
8000318c:	59 22 04 00 	st.w [%a2]4 <f0040004 <bmhd_3_copy+0x40c3ea04>>,%d2
80003190:	6d ff 5b ef 	call 80001046 <IfxScuCcu_getSourceFrequency>
80003194:	91 30 00 2f 	movh.a %a2,61443
80003198:	19 23 30 06 	ld.w %d3,[%a2]24624 <f0036030 <bmhd_3_copy+0x40c34a30>>
8000319c:	7b 20 06 41 	movh %d4,4194
800031a0:	8f f3 00 31 	and %d3,%d3,15
800031a4:	4b 03 41 31 	itof %d3,%d3
800031a8:	1b 34 dd 44 	addi %d4,%d4,19923
800031ac:	4b 32 51 20 	div.f %d2,%d2,%d3
800031b0:	d9 22 30 06 	lea %a2,[%a2]24624 <f0036030 <bmhd_3_copy+0x40c34a30>>
800031b4:	4b 02 31 21 	ftoiz %d2,%d2
800031b8:	73 42 6a 40 	mul %e4,%d2,%d4
800031bc:	8f 12 3e 20 	sha %d2,%d2,-31
800031c0:	3b 80 3e 40 	mov %d4,1000
800031c4:	8f a5 3f 30 	sha %d3,%d5,-6
800031c8:	a2 23       	sub %d3,%d2
800031ca:	e2 34       	mul %d4,%d3
800031cc:	0b 40 00 48 	mov %e4,%d4
800031d0:	6d ff 44 fb 	call 80002858 <waitTime>
800031d4:	00 90       	ret 

800031d6 <initGtmTomPwm>:
800031d6:	91 00 01 4f 	movh.a %a4,61456
800031da:	6d ff b0 f9 	call 8000253a <IfxGtm_enable>
800031de:	7b 00 08 40 	movh %d4,128
800031e2:	91 00 01 4f 	movh.a %a4,61456
800031e6:	91 00 00 c7 	movh.a %a12,28672
800031ea:	6d ff be f9 	call 80002566 <IfxGtm_Cmu_enableClocks>
800031ee:	d9 cc 00 e0 	lea %a12,[%a12]896 <70000380 <g_tomConfig>>
800031f2:	40 c4       	mov.aa %a4,%a12
800031f4:	91 00 01 5f 	movh.a %a5,61456
800031f8:	6d ff 4f f9 	call 80002496 <IfxGtm_Tom_Pwm_initConfig>
800031fc:	91 00 00 38 	movh.a %a3,32768
80003200:	19 32 6c 50 	ld.w %d2,[%a3]1388 <8000056c <IfxGtm_TOM1_4_TOUT14_P00_5_OUT>>
80003204:	d9 32 6c 50 	lea %a2,[%a3]1388 <8000056c <IfxGtm_TOM1_4_TOUT14_P00_5_OUT>>
80003208:	59 c2 04 00 	st.w [%a12]4 <70000004 <scr_xram+0x4>>,%d2
8000320c:	19 22 04 00 	ld.w %d2,[%a2]4 <70000004 <scr_xram+0x4>>
80003210:	59 c2 08 00 	st.w [%a12]8 <70000008 <scr_xram+0x8>>,%d2
80003214:	3b 00 35 2c 	mov %d2,-15536
80003218:	91 00 00 d7 	movh.a %a13,28672
8000321c:	d9 dd 28 d0 	lea %a13,[%a13]872 <70000368 <g_tomDriver>>
80003220:	f9 c2 10 00 	st.h [%a12]16 <70000010 <scr_xram+0x10>>,%d2
80003224:	82 12       	mov %d2,1
80003226:	40 d4       	mov.aa %a4,%a13
80003228:	40 c5       	mov.aa %a5,%a12
8000322a:	b5 c2 34 00 	st.a [%a12]52 <70000034 <scr_xram+0x34>>,%a2
8000322e:	e9 c2 20 00 	st.b [%a12]32 <70000020 <scr_xram+0x20>>,%d2
80003232:	6d ff 4a f8 	call 800022c6 <IfxGtm_Tom_Pwm_init>
80003236:	82 14       	mov %d4,1
80003238:	40 d4       	mov.aa %a4,%a13
8000323a:	6d ff 57 f9 	call 800024e8 <IfxGtm_Tom_Pwm_start>
8000323e:	00 90       	ret 

80003240 <IfxScr_copyProgram>:
80003240:	91 00 00 47 	movh.a %a4,28672
80003244:	d9 44 00 00 	lea %a4,[%a4]0 <70000000 <scr_xram>>
80003248:	91 40 02 5f 	movh.a %a5,61476
8000324c:	01 45 20 50 	sub.a %a5,%a5,%a4
80003250:	01 54 10 30 	add.a %a3,%a4,%a5
80003254:	d9 46 15 d0 	lea %a6,[%a4]853 <70000355 <scr_xram+0x355>>
80003258:	04 42       	ld.bu %d2,[%a4+]
8000325a:	34 32       	st.b [%a3],%d2
8000325c:	40 42       	mov.aa %a2,%a4
8000325e:	04 22       	ld.bu %d2,[%a2+]
80003260:	01 45 10 30 	add.a %a3,%a5,%a4
80003264:	34 32       	st.b [%a3],%d2
80003266:	39 42 01 00 	ld.bu %d2,[%a4]1 <70000001 <scr_xram+0x1>>
8000326a:	01 25 10 30 	add.a %a3,%a5,%a2
8000326e:	34 32       	st.b [%a3],%d2
80003270:	d9 24 01 00 	lea %a4,[%a2]1 <f0030001 <bmhd_3_copy+0x40c2ea01>>
80003274:	39 22 01 00 	ld.bu %d2,[%a2]1 <f0030001 <bmhd_3_copy+0x40c2ea01>>
80003278:	01 45 10 30 	add.a %a3,%a5,%a4
8000327c:	34 32       	st.b [%a3],%d2
8000327e:	d9 24 02 00 	lea %a4,[%a2]2 <f0030002 <bmhd_3_copy+0x40c2ea02>>
80003282:	39 22 02 00 	ld.bu %d2,[%a2]2 <f0030002 <bmhd_3_copy+0x40c2ea02>>
80003286:	01 45 10 30 	add.a %a3,%a5,%a4
8000328a:	34 32       	st.b [%a3],%d2
8000328c:	d9 24 03 00 	lea %a4,[%a2]3 <f0030003 <bmhd_3_copy+0x40c2ea03>>
80003290:	39 22 03 00 	ld.bu %d2,[%a2]3 <f0030003 <bmhd_3_copy+0x40c2ea03>>
80003294:	01 45 10 30 	add.a %a3,%a5,%a4
80003298:	34 32       	st.b [%a3],%d2
8000329a:	d9 24 04 00 	lea %a4,[%a2]4 <f0030004 <bmhd_3_copy+0x40c2ea04>>
8000329e:	39 22 04 00 	ld.bu %d2,[%a2]4 <f0030004 <bmhd_3_copy+0x40c2ea04>>
800032a2:	01 45 10 30 	add.a %a3,%a5,%a4
800032a6:	34 32       	st.b [%a3],%d2
800032a8:	d9 24 05 00 	lea %a4,[%a2]5 <f0030005 <bmhd_3_copy+0x40c2ea05>>
800032ac:	39 22 05 00 	ld.bu %d2,[%a2]5 <f0030005 <bmhd_3_copy+0x40c2ea05>>
800032b0:	01 45 10 30 	add.a %a3,%a5,%a4
800032b4:	34 32       	st.b [%a3],%d2
800032b6:	d9 24 06 00 	lea %a4,[%a2]6 <f0030006 <bmhd_3_copy+0x40c2ea06>>
800032ba:	39 22 06 00 	ld.bu %d2,[%a2]6 <f0030006 <bmhd_3_copy+0x40c2ea06>>
800032be:	01 45 10 30 	add.a %a3,%a5,%a4
800032c2:	34 32       	st.b [%a3],%d2
800032c4:	d9 24 07 00 	lea %a4,[%a2]7 <f0030007 <bmhd_3_copy+0x40c2ea07>>
800032c8:	39 22 07 00 	ld.bu %d2,[%a2]7 <f0030007 <bmhd_3_copy+0x40c2ea07>>
800032cc:	01 45 10 30 	add.a %a3,%a5,%a4
800032d0:	34 32       	st.b [%a3],%d2
800032d2:	d9 24 08 00 	lea %a4,[%a2]8 <f0030008 <bmhd_3_copy+0x40c2ea08>>
800032d6:	39 22 08 00 	ld.bu %d2,[%a2]8 <f0030008 <bmhd_3_copy+0x40c2ea08>>
800032da:	01 45 10 30 	add.a %a3,%a5,%a4
800032de:	34 32       	st.b [%a3],%d2
800032e0:	d9 24 09 00 	lea %a4,[%a2]9 <f0030009 <bmhd_3_copy+0x40c2ea09>>
800032e4:	39 22 09 00 	ld.bu %d2,[%a2]9 <f0030009 <bmhd_3_copy+0x40c2ea09>>
800032e8:	01 45 10 30 	add.a %a3,%a5,%a4
800032ec:	34 32       	st.b [%a3],%d2
800032ee:	d9 24 0a 00 	lea %a4,[%a2]10 <f003000a <bmhd_3_copy+0x40c2ea0a>>
800032f2:	01 45 10 30 	add.a %a3,%a5,%a4
800032f6:	39 22 0a 00 	ld.bu %d2,[%a2]10 <f003000a <bmhd_3_copy+0x40c2ea0a>>
800032fa:	d9 24 0b 00 	lea %a4,[%a2]11 <f003000b <bmhd_3_copy+0x40c2ea0b>>
800032fe:	34 32       	st.b [%a3],%d2
80003300:	7d 64 ae ff 	jne.a %a4,%a6,8000325c <IfxScr_copyProgram+0x1c>
80003304:	3b 50 a5 2a 	mov %d2,-21931
80003308:	91 40 02 2f 	movh.a %a2,61476
8000330c:	d9 22 f8 f1 	lea %a2,[%a2]8184 <f0241ff8 <bmhd_3_copy+0x40e409f8>>
80003310:	b4 22       	st.h [%a2],%d2
80003312:	91 40 02 2f 	movh.a %a2,61476
80003316:	d9 22 fa f1 	lea %a2,[%a2]8186 <f0241ffa <bmhd_3_copy+0x40e409fa>>
8000331a:	b4 22       	st.h [%a2],%d2
8000331c:	91 40 02 2f 	movh.a %a2,61476
80003320:	d9 22 fc f1 	lea %a2,[%a2]8188 <f0241ffc <bmhd_3_copy+0x40e409fc>>
80003324:	b4 22       	st.h [%a2],%d2
80003326:	91 40 02 2f 	movh.a %a2,61476
8000332a:	d9 22 fe f1 	lea %a2,[%a2]8190 <f0241ffe <bmhd_3_copy+0x40e409fe>>
8000332e:	b4 22       	st.h [%a2],%d2
80003330:	00 90       	ret 

80003332 <IfxScr_init>:
80003332:	91 50 02 2f 	movh.a %a2,61477
80003336:	19 23 04 38 	ld.w %d3,[%a2]-32572 <f02480c4 <bmhd_3_copy+0x40e46ac4>>
8000333a:	8f f4 0f 21 	and %d2,%d4,255
8000333e:	8f 02 01 20 	sh %d2,%d2,16
80003342:	a6 32       	or %d2,%d3
80003344:	8f 32 40 21 	or %d2,%d2,3
80003348:	d9 22 04 38 	lea %a2,[%a2]-32572 <f02480c4 <bmhd_3_copy+0x40e46ac4>>
8000334c:	74 22       	st.w [%a2],%d2
8000334e:	91 50 02 2f 	movh.a %a2,61477
80003352:	d9 22 14 38 	lea %a2,[%a2]-32556 <f02480d4 <bmhd_3_copy+0x40e46ad4>>
80003356:	54 22       	ld.w %d2,[%a2]
80003358:	ef 12 ff 7f 	jz.t %d2,17,80003356 <IfxScr_init+0x24>
8000335c:	91 50 02 2f 	movh.a %a2,61477
80003360:	19 22 28 38 	ld.w %d2,[%a2]-32536 <f02480e8 <bmhd_3_copy+0x40e46ae8>>
80003364:	d9 22 28 38 	lea %a2,[%a2]-32536 <f02480e8 <bmhd_3_copy+0x40e46ae8>>
80003368:	b7 12 01 28 	insert %d2,%d2,1,16,1
8000336c:	3b 00 08 30 	mov %d3,128
80003370:	74 22       	st.w [%a2],%d2
80003372:	91 50 02 2f 	movh.a %a2,61477
80003376:	d9 22 38 28 	lea %a2,[%a2]-32584 <f02480b8 <bmhd_3_copy+0x40e46ab8>>
8000337a:	54 22       	ld.w %d2,[%a2]
8000337c:	8f f2 0f 21 	and %d2,%d2,255
80003380:	5f 32 fd ff 	jne %d2,%d3,8000337a <IfxScr_init+0x48>
80003384:	00 90       	ret 

80003386 <__fixunsdfsi>:
80003386:	82 06       	mov %d6,0
80003388:	7b 00 1e 74 	movh %d7,16864
8000338c:	60 4d       	mov.a %a13,%d4
8000338e:	60 5c       	mov.a %a12,%d5
80003390:	6d 00 91 02 	call 800038b2 <__gedf2>
80003394:	ff 02 07 00 	jge %d2,0,800033a2 <__fixunsdfsi+0x1c>
80003398:	80 d4       	mov.d %d4,%a13
8000339a:	80 c5       	mov.d %d5,%a12
8000339c:	6d 00 ab 02 	call 800038f2 <__fixdfsi>
800033a0:	00 90       	ret 
800033a2:	82 06       	mov %d6,0
800033a4:	7b 00 1e 74 	movh %d7,16864
800033a8:	80 d4       	mov.d %d4,%a13
800033aa:	80 c5       	mov.d %d5,%a12
800033ac:	6d 00 4e 01 	call 80003648 <__subdf3>
800033b0:	0b 23 10 48 	mov %e4,%d3,%d2
800033b4:	6d 00 9f 02 	call 800038f2 <__fixdfsi>
800033b8:	9b 02 00 28 	addih %d2,%d2,32768
800033bc:	00 90       	ret 

800033be <__extendsfdf2>:
800033be:	20 20       	sub.a %sp,32
800033c0:	d9 a5 10 00 	lea %a5,[%sp]16
800033c4:	d9 a4 0c 00 	lea %a4,[%sp]12
800033c8:	59 a4 0c 00 	st.w [%sp]12,%d4
800033cc:	6d 00 e1 02 	call 8000398e <__unpack_f>
800033d0:	19 a2 1c 00 	ld.w %d2,[%sp]28
800033d4:	19 a6 18 00 	ld.w %d6,[%sp]24
800033d8:	53 12 40 40 	mul.u %e4,%d2,1
800033dc:	77 45 00 3f 	dextr %d3,%d5,%d4,30
800033e0:	8f e4 01 20 	sh %d2,%d4,30
800033e4:	19 a5 14 00 	ld.w %d5,[%sp]20
800033e8:	19 a4 10 00 	ld.w %d4,[%sp]16
800033ec:	74 a2       	st.w [%sp],%d2
800033ee:	59 a3 04 00 	st.w [%sp]4,%d3
800033f2:	6d 00 be 02 	call 8000396e <__make_dp>
800033f6:	00 90       	ret 

800033f8 <_fpadd_parts>:
800033f8:	54 42       	ld.w %d2,[%a4]
800033fa:	40 42       	mov.aa %a2,%a4
800033fc:	bf 22 c2 80 	jlt.u %d2,2,80003580 <_fpadd_parts+0x188>
80003400:	54 53       	ld.w %d3,[%a5]
80003402:	40 52       	mov.aa %a2,%a5
80003404:	bf 23 be 80 	jlt.u %d3,2,80003580 <_fpadd_parts+0x188>
80003408:	df 42 e3 00 	jeq %d2,4,800035ce <_fpadd_parts+0x1d6>
8000340c:	df 43 ba 00 	jeq %d3,4,80003580 <_fpadd_parts+0x188>
80003410:	df 23 b9 00 	jeq %d3,2,80003582 <_fpadd_parts+0x18a>
80003414:	df 22 b6 00 	jeq %d2,2,80003580 <_fpadd_parts+0x188>
80003418:	19 40 08 00 	ld.w %d0,[%a4]8
8000341c:	19 57 08 00 	ld.w %d7,[%a5]8
80003420:	09 44 4c 09 	ld.d %e4,[%a4]12
80003424:	0b 70 80 60 	sub %d6,%d0,%d7
80003428:	09 52 4c 09 	ld.d %e2,[%a5]12
8000342c:	bf 06 c2 00 	jlt %d6,0,800035b0 <_fpadd_parts+0x1b8>
80003430:	8b 06 84 12 	ge %d1,%d6,64
80003434:	df 01 c4 80 	jne %d1,0,800035bc <_fpadd_parts+0x1c4>
80003438:	df 06 2a 00 	jeq %d6,0,8000348c <_fpadd_parts+0x94>
8000343c:	8b 06 82 72 	ge %d7,%d6,32
80003440:	2b 32 50 97 	seln %d9,%d7,%d2,%d3
80003444:	ab 03 a0 87 	seln %d8,%d7,%d3,0
80003448:	8f f6 01 71 	and %d7,%d6,31
8000344c:	8b 07 02 11 	rsub %d1,%d7,32
80003450:	17 98 80 11 	dextr %d1,%d8,%d9,%d1
80003454:	2b 91 40 17 	sel %d1,%d7,%d1,%d9
80003458:	8b 06 82 a2 	ge %d10,%d6,32
8000345c:	32 57       	rsub %d7
8000345e:	02 19       	mov %d9,%d1
80003460:	8f f6 01 61 	and %d6,%d6,31
80003464:	82 f1       	mov %d1,-1
80003466:	0f 78 00 80 	sh %d8,%d8,%d7
8000346a:	17 11 80 76 	dextr %d7,%d1,%d1,%d6
8000346e:	0f 61 00 60 	sh %d6,%d1,%d6
80003472:	2b 67 50 7a 	seln %d7,%d10,%d7,%d6
80003476:	ab 06 a0 6a 	seln %d6,%d10,%d6,0
8000347a:	0f 62 e0 10 	andn %d1,%d2,%d6
8000347e:	0f 73 e0 60 	andn %d6,%d3,%d7
80003482:	a6 16       	or %d6,%d1
80003484:	8b 06 00 95 	or.ne %d9,%d6,0
80003488:	0b 98 10 28 	mov %e2,%d8,%d9
8000348c:	19 41 04 00 	ld.w %d1,[%a4]4
80003490:	19 56 04 00 	ld.w %d6,[%a5]4
80003494:	5f 61 4c 00 	jeq %d1,%d6,8000352c <_fpadd_parts+0x134>
80003498:	0b 24 c0 60 	subx %d6,%d4,%d2
8000349c:	0b 35 d0 70 	subc %d7,%d5,%d3
800034a0:	df 01 06 00 	jeq %d1,0,800034ac <_fpadd_parts+0xb4>
800034a4:	0b 42 c0 60 	subx %d6,%d2,%d4
800034a8:	0b 53 d0 70 	subc %d7,%d3,%d5
800034ac:	8b 07 00 31 	rsub %d3,%d7,0
800034b0:	8b 06 00 91 	rsub %d9,%d6,0
800034b4:	ab f3 1f 36 	cadd %d3,%d6,%d3,-1
800034b8:	82 12       	mov %d2,1
800034ba:	bf 07 05 00 	jlt %d7,0,800034c4 <_fpadd_parts+0xcc>
800034be:	02 69       	mov %d9,%d6
800034c0:	02 73       	mov %d3,%d7
800034c2:	82 02       	mov %d2,0
800034c4:	8b f9 9f 70 	addx %d7,%d9,-1
800034c8:	82 f5       	mov %d5,-1
800034ca:	8b f3 bf 60 	addc %d6,%d3,-1
800034ce:	06 c5       	sh %d5,-4
800034d0:	59 62 04 00 	st.w [%a6]4,%d2
800034d4:	82 e1       	mov %d1,-2
800034d6:	0b 56 00 21 	eq %d2,%d6,%d5
800034da:	0b 71 30 22 	and.lt.u %d2,%d1,%d7
800034de:	59 60 08 00 	st.w [%a6]8,%d0
800034e2:	59 69 0c 00 	st.w [%a6]12,%d9
800034e6:	59 63 10 00 	st.w [%a6]16,%d3
800034ea:	0b 65 a0 22 	or.lt.u %d2,%d5,%d6
800034ee:	df 02 2b 80 	jne %d2,0,80003544 <_fpadd_parts+0x14c>
800034f2:	1b f0 ff 7f 	addi %d7,%d0,-1
800034f6:	77 93 80 30 	dextr %d3,%d3,%d9,1
800034fa:	06 19       	sh %d9,1
800034fc:	8b f9 9f 00 	addx %d0,%d9,-1
80003500:	8b f3 bf 60 	addc %d6,%d3,-1
80003504:	0b 56 00 21 	eq %d2,%d6,%d5
80003508:	0b 01 50 22 	and.ge.u %d2,%d1,%d0
8000350c:	0b 56 a0 22 	or.lt.u %d2,%d6,%d5
80003510:	02 78       	mov %d8,%d7
80003512:	c2 f7       	add %d7,-1
80003514:	df 02 f1 ff 	jne %d2,0,800034f6 <_fpadd_parts+0xfe>
80003518:	82 32       	mov %d2,3
8000351a:	59 69 0c 00 	st.w [%a6]12,%d9
8000351e:	59 63 10 00 	st.w [%a6]16,%d3
80003522:	59 68 08 00 	st.w [%a6]8,%d8
80003526:	74 62       	st.w [%a6],%d2
80003528:	40 62       	mov.aa %a2,%a6
8000352a:	00 90       	ret 
8000352c:	0b 24 40 90 	addx %d9,%d4,%d2
80003530:	0b 35 50 30 	addc %d3,%d5,%d3
80003534:	59 61 04 00 	st.w [%a6]4,%d1
80003538:	59 60 08 00 	st.w [%a6]8,%d0
8000353c:	59 69 0c 00 	st.w [%a6]12,%d9
80003540:	59 63 10 00 	st.w [%a6]16,%d3
80003544:	82 32       	mov %d2,3
80003546:	7b 00 00 52 	movh %d5,8192
8000354a:	40 62       	mov.aa %a2,%a6
8000354c:	74 62       	st.w [%a6],%d2
8000354e:	0b 53 00 21 	eq %d2,%d3,%d5
80003552:	b7 02 01 20 	insert %d2,%d2,0,0,1
80003556:	0b 53 a0 22 	or.lt.u %d2,%d3,%d5
8000355a:	df 02 13 80 	jne %d2,0,80003580 <_fpadd_parts+0x188>
8000355e:	8f f3 1f 20 	sh %d2,%d3,-1
80003562:	77 93 80 5f 	dextr %d5,%d3,%d9,31
80003566:	8f 19 00 31 	and %d3,%d9,1
8000356a:	59 62 10 00 	st.w [%a6]16,%d2
8000356e:	19 62 08 00 	ld.w %d2,[%a6]8
80003572:	a6 53       	or %d3,%d5
80003574:	c2 12       	add %d2,1
80003576:	d9 63 08 00 	lea %a3,[%a6]8
8000357a:	59 63 0c 00 	st.w [%a6]12,%d3
8000357e:	74 32       	st.w [%a3],%d2
80003580:	00 90       	ret 
80003582:	40 42       	mov.aa %a2,%a4
80003584:	df 22 fe ff 	jne %d2,2,80003580 <_fpadd_parts+0x188>
80003588:	40 63       	mov.aa %a3,%a6
8000358a:	09 44 48 01 	ld.d %e4,[%a4+]8
8000358e:	89 34 48 01 	st.d [%a3+]8,%e4
80003592:	09 44 48 01 	ld.d %e4,[%a4+]8
80003596:	89 34 48 01 	st.d [%a3+]8,%e4
8000359a:	44 44       	ld.w %d4,[%a4+]
8000359c:	64 34       	st.w [%a3+],%d4
8000359e:	19 23 04 00 	ld.w %d3,[%a2]4
800035a2:	19 52 04 00 	ld.w %d2,[%a5]4
800035a6:	40 62       	mov.aa %a2,%a6
800035a8:	26 32       	and %d2,%d3
800035aa:	59 62 04 00 	st.w [%a6]4,%d2
800035ae:	00 90       	ret 
800035b0:	0b 07 80 60 	sub %d6,%d7,%d0
800035b4:	8b 06 44 12 	lt %d1,%d6,64
800035b8:	df 01 1d 80 	jne %d1,0,800035f2 <_fpadd_parts+0x1fa>
800035bc:	3f 07 06 00 	jlt %d7,%d0,800035c8 <_fpadd_parts+0x1d0>
800035c0:	d2 04       	mov %e4,0
800035c2:	02 70       	mov %d0,%d7
800035c4:	1d ff 64 ff 	j 8000348c <_fpadd_parts+0x94>
800035c8:	d2 02       	mov %e2,0
800035ca:	1d ff 61 ff 	j 8000348c <_fpadd_parts+0x94>
800035ce:	40 42       	mov.aa %a2,%a4
800035d0:	df 43 d8 ff 	jne %d3,4,80003580 <_fpadd_parts+0x188>
800035d4:	19 43 04 00 	ld.w %d3,[%a4]4
800035d8:	19 52 04 00 	ld.w %d2,[%a5]4
800035dc:	7b 00 00 48 	movh %d4,32768
800035e0:	0b 23 10 21 	ne %d2,%d3,%d2
800035e4:	1b 84 55 40 	addi %d4,%d4,1368
800035e8:	80 43       	mov.d %d3,%a4
800035ea:	2b 43 50 22 	seln %d2,%d2,%d3,%d4
800035ee:	60 22       	mov.a %a2,%d2
800035f0:	00 90       	ret 
800035f2:	8b 06 82 02 	ge %d0,%d6,32
800035f6:	2b 54 50 90 	seln %d9,%d0,%d4,%d5
800035fa:	ab 05 a0 80 	seln %d8,%d0,%d5,0
800035fe:	8f f6 01 01 	and %d0,%d6,31
80003602:	8b 00 02 11 	rsub %d1,%d0,32
80003606:	17 98 80 11 	dextr %d1,%d8,%d9,%d1
8000360a:	2b 91 40 10 	sel %d1,%d0,%d1,%d9
8000360e:	8b 06 82 a2 	ge %d10,%d6,32
80003612:	32 50       	rsub %d0
80003614:	02 19       	mov %d9,%d1
80003616:	8f f6 01 61 	and %d6,%d6,31
8000361a:	82 f1       	mov %d1,-1
8000361c:	0f 08 00 80 	sh %d8,%d8,%d0
80003620:	17 11 80 06 	dextr %d0,%d1,%d1,%d6
80003624:	0f 61 00 60 	sh %d6,%d1,%d6
80003628:	2b 60 50 0a 	seln %d0,%d10,%d0,%d6
8000362c:	ab 06 a0 6a 	seln %d6,%d10,%d6,0
80003630:	0f 64 e0 10 	andn %d1,%d4,%d6
80003634:	0f 05 e0 60 	andn %d6,%d5,%d0
80003638:	a6 16       	or %d6,%d1
8000363a:	8b 06 00 95 	or.ne %d9,%d6,0
8000363e:	0b 98 10 48 	mov %e4,%d8,%d9
80003642:	02 70       	mov %d0,%d7
80003644:	1d ff 24 ff 	j 8000348c <_fpadd_parts+0x94>

80003648 <__subdf3>:
80003648:	20 50       	sub.a %sp,80
8000364a:	d9 a5 14 00 	lea %a5,[%sp]20
8000364e:	d9 a4 04 00 	lea %a4,[%sp]4
80003652:	89 a4 44 09 	st.d [%sp]4,%e4
80003656:	89 a6 4c 09 	st.d [%sp]12,%e6
8000365a:	6d 00 ad 02 	call 80003bb4 <__unpack_d>
8000365e:	d9 a5 28 00 	lea %a5,[%sp]40
80003662:	d9 a4 0c 00 	lea %a4,[%sp]12
80003666:	6d 00 a7 02 	call 80003bb4 <__unpack_d>
8000366a:	19 a2 2c 00 	ld.w %d2,[%sp]44
8000366e:	d9 a4 14 00 	lea %a4,[%sp]20
80003672:	8f 12 80 21 	xor %d2,%d2,1
80003676:	d9 a6 3c 00 	lea %a6,[%sp]60
8000367a:	d9 a5 28 00 	lea %a5,[%sp]40
8000367e:	59 a2 2c 00 	st.w [%sp]44,%d2
80003682:	6d ff bb fe 	call 800033f8 <_fpadd_parts>
80003686:	40 24       	mov.aa %a4,%a2
80003688:	6d 00 c7 01 	call 80003a16 <__pack_d>
8000368c:	00 90       	ret 

8000368e <__muldf3>:
8000368e:	20 50       	sub.a %sp,80
80003690:	d9 a5 14 00 	lea %a5,[%sp]20
80003694:	d9 a4 04 00 	lea %a4,[%sp]4
80003698:	89 a4 44 09 	st.d [%sp]4,%e4
8000369c:	89 a6 4c 09 	st.d [%sp]12,%e6
800036a0:	6d 00 8a 02 	call 80003bb4 <__unpack_d>
800036a4:	d9 a5 28 00 	lea %a5,[%sp]40
800036a8:	d9 a4 0c 00 	lea %a4,[%sp]12
800036ac:	6d 00 84 02 	call 80003bb4 <__unpack_d>
800036b0:	19 a2 14 00 	ld.w %d2,[%sp]20
800036b4:	ff 22 0f 80 	jge.u %d2,2,800036d2 <__muldf3+0x44>
800036b8:	19 a3 18 00 	ld.w %d3,[%sp]24
800036bc:	19 a2 2c 00 	ld.w %d2,[%sp]44
800036c0:	d9 a4 14 00 	lea %a4,[%sp]20
800036c4:	0b 23 10 21 	ne %d2,%d3,%d2
800036c8:	59 a2 18 00 	st.w [%sp]24,%d2
800036cc:	6d 00 a5 01 	call 80003a16 <__pack_d>
800036d0:	00 90       	ret 
800036d2:	19 a3 28 00 	ld.w %d3,[%sp]40
800036d6:	bf 23 14 80 	jlt.u %d3,2,800036fe <__muldf3+0x70>
800036da:	df 42 0a 80 	jne %d2,4,800036ee <__muldf3+0x60>
800036de:	91 00 00 48 	movh.a %a4,32768
800036e2:	d9 44 58 50 	lea %a4,[%a4]1368 <80000558 <__thenan_df>>
800036e6:	df 23 f3 7f 	jeq %d3,2,800036cc <__muldf3+0x3e>
800036ea:	1d ff e7 ff 	j 800036b8 <__muldf3+0x2a>
800036ee:	df 43 15 80 	jne %d3,4,80003718 <__muldf3+0x8a>
800036f2:	91 00 00 48 	movh.a %a4,32768
800036f6:	d9 44 58 50 	lea %a4,[%a4]1368 <80000558 <__thenan_df>>
800036fa:	df 22 e9 7f 	jeq %d2,2,800036cc <__muldf3+0x3e>
800036fe:	19 a2 2c 00 	ld.w %d2,[%sp]44
80003702:	19 a3 18 00 	ld.w %d3,[%sp]24
80003706:	d9 a4 28 00 	lea %a4,[%sp]40
8000370a:	0b 23 10 21 	ne %d2,%d3,%d2
8000370e:	59 a2 2c 00 	st.w [%sp]44,%d2
80003712:	6d 00 82 01 	call 80003a16 <__pack_d>
80003716:	00 90       	ret 
80003718:	19 a5 2c 00 	ld.w %d5,[%sp]44
8000371c:	19 a4 18 00 	ld.w %d4,[%sp]24
80003720:	0b 45 10 a1 	ne %d10,%d5,%d4
80003724:	df 22 aa 00 	jeq %d2,2,80003878 <__muldf3+0x1ea>
80003728:	df 23 ae 00 	jeq %d3,2,80003884 <__muldf3+0x1f6>
8000372c:	19 a6 34 00 	ld.w %d6,[%sp]52
80003730:	19 a4 20 00 	ld.w %d4,[%sp]32
80003734:	82 03       	mov %d3,0
80003736:	73 46 68 00 	mul.u %e0,%d6,%d4
8000373a:	19 a2 38 00 	ld.w %d2,[%sp]56
8000373e:	82 0b       	mov %d11,0
80003740:	03 36 0a 11 	madd %d1,%d1,%d6,%d3
80003744:	02 48       	mov %d8,%d4
80003746:	19 a7 24 00 	ld.w %d7,[%sp]36
8000374a:	03 4b 0a 11 	madd %d1,%d1,%d11,%d4
8000374e:	73 42 68 40 	mul.u %e4,%d2,%d4
80003752:	82 0d       	mov %d13,0
80003754:	82 0c       	mov %d12,0
80003756:	03 32 0a 55 	madd %d5,%d5,%d2,%d3
8000375a:	03 8d 0a 55 	madd %d5,%d5,%d13,%d8
8000375e:	73 27 68 80 	mul.u %e8,%d7,%d2
80003762:	03 d7 0a 99 	madd %d9,%d9,%d7,%d13
80003766:	03 2c 0a 99 	madd %d9,%d9,%d12,%d2
8000376a:	03 67 68 24 	madd.u %e2,%e4,%d7,%d6
8000376e:	03 b7 0a 33 	madd %d3,%d3,%d7,%d11
80003772:	03 6c 0a 33 	madd %d3,%d3,%d12,%d6
80003776:	0b 35 00 61 	eq %d6,%d5,%d3
8000377a:	0b 42 30 62 	and.lt.u %d6,%d2,%d4
8000377e:	0b 53 a0 62 	or.lt.u %d6,%d3,%d5
80003782:	02 67       	mov %d7,%d6
80003784:	82 06       	mov %d6,0
80003786:	0b 06 40 60 	addx %d6,%d6,%d0
8000378a:	0b 12 50 50 	addc %d5,%d2,%d1
8000378e:	0b 51 00 41 	eq %d4,%d1,%d5
80003792:	0b 06 50 42 	and.ge.u %d4,%d6,%d0
80003796:	0b 51 a0 42 	or.lt.u %d4,%d1,%d5
8000379a:	df 04 06 80 	jne %d4,0,800037a6 <__muldf3+0x118>
8000379e:	8b 1b 80 b0 	addx %d11,%d11,1
800037a2:	8b 07 a0 70 	addc %d7,%d7,0
800037a6:	82 04       	mov %d4,0
800037a8:	0b 83 40 30 	addx %d3,%d3,%d8
800037ac:	0b 94 50 20 	addc %d2,%d4,%d9
800037b0:	0b b3 40 30 	addx %d3,%d3,%d11
800037b4:	0b 72 50 20 	addc %d2,%d2,%d7
800037b8:	19 a4 1c 00 	ld.w %d4,[%sp]28
800037bc:	19 a7 30 00 	ld.w %d7,[%sp]48
800037c0:	59 aa 00 10 	st.w [%sp]64,%d10
800037c4:	0b 74 00 10 	add %d1,%d4,%d7
800037c8:	7b 00 00 42 	movh %d4,8192
800037cc:	1b 41 00 00 	addi %d0,%d1,4
800037d0:	0b 42 00 71 	eq %d7,%d2,%d4
800037d4:	b7 07 01 70 	insert %d7,%d7,0,0,1
800037d8:	59 a0 04 10 	st.w [%sp]68,%d0
800037dc:	0b 42 a0 72 	or.lt.u %d7,%d2,%d4
800037e0:	df 07 2b 80 	jne %d7,0,80003836 <__muldf3+0x1a8>
800037e4:	1b 51 00 70 	addi %d7,%d1,5
800037e8:	8f 13 00 01 	and %d0,%d3,1
800037ec:	02 71       	mov %d1,%d7
800037ee:	df 00 07 00 	jeq %d0,0,800037fc <__muldf3+0x16e>
800037f2:	77 65 80 6f 	dextr %d6,%d5,%d6,31
800037f6:	06 f5       	sh %d5,-1
800037f8:	b7 f5 81 5f 	insert %d5,%d5,15,31,1
800037fc:	77 32 80 3f 	dextr %d3,%d2,%d3,31
80003800:	06 f2       	sh %d2,-1
80003802:	0b 24 30 01 	lt.u %d0,%d4,%d2
80003806:	0b 24 70 02 	or.eq %d0,%d4,%d2
8000380a:	c2 17       	add %d7,1
8000380c:	df 00 ee ff 	jne %d0,0,800037e8 <__muldf3+0x15a>
80003810:	59 a1 04 10 	st.w [%sp]68,%d1
80003814:	8f f3 0f 41 	and %d4,%d3,255
80003818:	8b 04 28 42 	ne %d4,%d4,128
8000381c:	df 04 3a 00 	jeq %d4,0,80003890 <__muldf3+0x202>
80003820:	59 a2 0c 10 	st.w [%sp]76,%d2
80003824:	82 32       	mov %d2,3
80003826:	59 a3 08 10 	st.w [%sp]72,%d3
8000382a:	d9 a4 3c 00 	lea %a4,[%sp]60
8000382e:	59 a2 3c 00 	st.w [%sp]60,%d2
80003832:	1d ff 4d ff 	j 800036cc <__muldf3+0x3e>
80003836:	7b 00 00 71 	movh %d7,4096
8000383a:	0b 27 30 41 	lt.u %d4,%d7,%d2
8000383e:	0b 27 70 42 	or.eq %d4,%d7,%d2
80003842:	df 04 e9 ff 	jne %d4,0,80003814 <__muldf3+0x186>
80003846:	77 32 80 20 	dextr %d2,%d2,%d3,1
8000384a:	c2 f0       	add %d0,-1
8000384c:	06 13       	sh %d3,1
8000384e:	ff 05 06 00 	jge %d5,0,8000385a <__muldf3+0x1cc>
80003852:	8f 13 40 11 	or %d1,%d3,1
80003856:	0b 21 10 28 	mov %e2,%d1,%d2
8000385a:	0b 72 00 41 	eq %d4,%d2,%d7
8000385e:	b7 04 01 40 	insert %d4,%d4,0,0,1
80003862:	77 65 80 50 	dextr %d5,%d5,%d6,1
80003866:	0b 72 a0 42 	or.lt.u %d4,%d2,%d7
8000386a:	06 16       	sh %d6,1
8000386c:	df 04 ed ff 	jne %d4,0,80003846 <__muldf3+0x1b8>
80003870:	59 a0 04 10 	st.w [%sp]68,%d0
80003874:	1d ff d0 ff 	j 80003814 <__muldf3+0x186>
80003878:	59 aa 18 00 	st.w [%sp]24,%d10
8000387c:	d9 a4 14 00 	lea %a4,[%sp]20
80003880:	1d ff 26 ff 	j 800036cc <__muldf3+0x3e>
80003884:	59 aa 2c 00 	st.w [%sp]44,%d10
80003888:	d9 a4 28 00 	lea %a4,[%sp]40
8000388c:	1d ff 20 ff 	j 800036cc <__muldf3+0x3e>
80003890:	77 32 00 4c 	dextr %d4,%d2,%d3,24
80003894:	a6 65       	or %d5,%d6
80003896:	8b 05 20 52 	ne %d5,%d5,0
8000389a:	0f 45 e0 40 	andn %d4,%d5,%d4
8000389e:	df 04 c1 7f 	jeq %d4,0,80003820 <__muldf3+0x192>
800038a2:	8b 03 88 30 	addx %d3,%d3,128
800038a6:	8b 02 a0 20 	addc %d2,%d2,0
800038aa:	8f f3 cf 31 	andn %d3,%d3,255
800038ae:	1d ff b9 ff 	j 80003820 <__muldf3+0x192>

800038b2 <__gedf2>:
800038b2:	20 38       	sub.a %sp,56
800038b4:	d9 a5 10 00 	lea %a5,[%sp]16
800038b8:	40 a4       	mov.aa %a4,%sp
800038ba:	89 a4 40 09 	st.d [%sp],%e4
800038be:	89 a6 48 09 	st.d [%sp]8,%e6
800038c2:	6d 00 79 01 	call 80003bb4 <__unpack_d>
800038c6:	d9 a5 24 00 	lea %a5,[%sp]36
800038ca:	d9 a4 08 00 	lea %a4,[%sp]8
800038ce:	6d 00 73 01 	call 80003bb4 <__unpack_d>
800038d2:	19 a3 10 00 	ld.w %d3,[%sp]16
800038d6:	82 f2       	mov %d2,-1
800038d8:	bf 23 0c 80 	jlt.u %d3,2,800038f0 <__gedf2+0x3e>
800038dc:	19 a3 24 00 	ld.w %d3,[%sp]36
800038e0:	bf 23 08 80 	jlt.u %d3,2,800038f0 <__gedf2+0x3e>
800038e4:	d9 a5 24 00 	lea %a5,[%sp]36
800038e8:	d9 a4 10 00 	lea %a4,[%sp]16
800038ec:	6d 00 c3 01 	call 80003c72 <__fpcmp_parts_d>
800038f0:	00 90       	ret 

800038f2 <__fixdfsi>:
800038f2:	20 20       	sub.a %sp,32
800038f4:	d9 a5 0c 00 	lea %a5,[%sp]12
800038f8:	d9 a4 04 00 	lea %a4,[%sp]4
800038fc:	89 a4 44 09 	st.d [%sp]4,%e4
80003900:	6d 00 5a 01 	call 80003bb4 <__unpack_d>
80003904:	19 a3 0c 00 	ld.w %d3,[%sp]12
80003908:	82 02       	mov %d2,0
8000390a:	bf 33 25 80 	jlt.u %d3,3,80003954 <__fixdfsi+0x62>
8000390e:	df 43 29 00 	jeq %d3,4,80003960 <__fixdfsi+0x6e>
80003912:	19 a3 14 00 	ld.w %d3,[%sp]20
80003916:	bf 03 1f 00 	jlt %d3,0,80003954 <__fixdfsi+0x62>
8000391a:	8b f3 41 22 	lt %d2,%d3,31
8000391e:	19 a6 10 00 	ld.w %d6,[%sp]16
80003922:	df 02 1a 00 	jeq %d2,0,80003956 <__fixdfsi+0x64>
80003926:	8b c3 03 21 	rsub %d2,%d3,60
8000392a:	19 a5 1c 00 	ld.w %d5,[%sp]28
8000392e:	19 a4 18 00 	ld.w %d4,[%sp]24
80003932:	8b 02 82 32 	ge %d3,%d2,32
80003936:	2b 54 50 43 	seln %d4,%d3,%d4,%d5
8000393a:	ab 05 a0 53 	seln %d5,%d3,%d5,0
8000393e:	8f f2 01 31 	and %d3,%d2,31
80003942:	8b 03 02 21 	rsub %d2,%d3,32
80003946:	17 45 80 22 	dextr %d2,%d5,%d4,%d2
8000394a:	2b 42 40 23 	sel %d2,%d3,%d2,%d4
8000394e:	df 06 03 00 	jeq %d6,0,80003954 <__fixdfsi+0x62>
80003952:	32 52       	rsub %d2
80003954:	00 90       	ret 
80003956:	82 f2       	mov %d2,-1
80003958:	06 f2       	sh %d2,-1
8000395a:	ab 12 00 26 	cadd %d2,%d6,%d2,1
8000395e:	00 90       	ret 
80003960:	19 a3 10 00 	ld.w %d3,[%sp]16
80003964:	82 f2       	mov %d2,-1
80003966:	06 f2       	sh %d2,-1
80003968:	ab 12 00 23 	cadd %d2,%d3,%d2,1
8000396c:	00 90       	ret 

8000396e <__make_dp>:
8000396e:	20 18       	sub.a %sp,24
80003970:	09 a2 d8 09 	ld.da %a2,[%sp]24
80003974:	d9 a4 04 00 	lea %a4,[%sp]4
80003978:	59 a4 04 00 	st.w [%sp]4,%d4
8000397c:	59 a5 08 00 	st.w [%sp]8,%d5
80003980:	59 a6 0c 00 	st.w [%sp]12,%d6
80003984:	89 a2 d0 09 	st.da [%sp]16,%a2
80003988:	6d 00 47 00 	call 80003a16 <__pack_d>
8000398c:	00 90       	ret 

8000398e <__unpack_f>:
8000398e:	54 42       	ld.w %d2,[%a4]
80003990:	8f 12 1e 50 	sh %d5,%d2,-31
80003994:	37 02 e8 3b 	extr.u %d3,%d2,23,8
80003998:	b7 02 89 4b 	insert %d4,%d2,0,23,9
8000399c:	59 55 04 00 	st.w [%a5]4,%d5
800039a0:	df 03 16 80 	jne %d3,0,800039cc <__unpack_f+0x3e>
800039a4:	df 04 25 00 	jeq %d4,0,800039ee <__unpack_f+0x60>
800039a8:	82 33       	mov %d3,3
800039aa:	8f 74 00 20 	sh %d2,%d4,7
800039ae:	7b 00 00 54 	movh %d5,16384
800039b2:	74 53       	st.w [%a5],%d3
800039b4:	3b 10 f8 3f 	mov %d3,-127
800039b8:	06 12       	sh %d2,1
800039ba:	02 34       	mov %d4,%d3
800039bc:	c2 f3       	add %d3,-1
800039be:	3f 52 fd ff 	jlt.u %d2,%d5,800039b8 <__unpack_f+0x2a>
800039c2:	59 54 08 00 	st.w [%a5]8,%d4
800039c6:	59 52 0c 00 	st.w [%a5]12,%d2
800039ca:	00 90       	ret 
800039cc:	8b f3 2f 52 	ne %d5,%d3,255
800039d0:	df 05 12 00 	jeq %d5,0,800039f4 <__unpack_f+0x66>
800039d4:	82 32       	mov %d2,3
800039d6:	1b 13 f8 3f 	addi %d3,%d3,-127
800039da:	74 52       	st.w [%a5],%d2
800039dc:	8f 74 00 20 	sh %d2,%d4,7
800039e0:	b7 f2 01 2f 	insert %d2,%d2,15,30,1
800039e4:	59 53 08 00 	st.w [%a5]8,%d3
800039e8:	59 52 0c 00 	st.w [%a5]12,%d2
800039ec:	00 90       	ret 
800039ee:	82 22       	mov %d2,2
800039f0:	74 52       	st.w [%a5],%d2
800039f2:	00 90       	ret 
800039f4:	df 04 05 80 	jne %d4,0,800039fe <__unpack_f+0x70>
800039f8:	82 42       	mov %d2,4
800039fa:	74 52       	st.w [%a5],%d2
800039fc:	00 90       	ret 
800039fe:	37 02 61 3b 	extr.u %d3,%d2,22,1
80003a02:	06 72       	sh %d2,7
80003a04:	74 53       	st.w [%a5],%d3
80003a06:	7b 00 00 32 	movh %d3,8192
80003a0a:	1b 03 f8 3f 	addi %d3,%d3,-128
80003a0e:	26 32       	and %d2,%d3
80003a10:	59 52 0c 00 	st.w [%a5]12,%d2
80003a14:	00 90       	ret 

80003a16 <__pack_d>:
80003a16:	54 44       	ld.w %d4,[%a4]
80003a18:	19 43 0c 00 	ld.w %d3,[%a4]12
80003a1c:	19 42 10 00 	ld.w %d2,[%a4]16
80003a20:	19 41 04 00 	ld.w %d1,[%a4]4
80003a24:	bf 24 56 80 	jlt.u %d4,2,80003ad0 <__pack_d+0xba>
80003a28:	7b 00 ff 57 	movh %d5,32752
80003a2c:	d2 06       	mov %e6,0
80003a2e:	df 44 0b 00 	jeq %d4,4,80003a44 <__pack_d+0x2e>
80003a32:	0f 23 a0 50 	or %d5,%d3,%d2
80003a36:	8b 05 00 02 	eq %d0,%d5,0
80003a3a:	8b 24 e0 04 	or.eq %d0,%d4,2
80003a3e:	82 05       	mov %d5,0
80003a40:	df 00 0c 00 	jeq %d0,0,80003a58 <__pack_d+0x42>
80003a44:	0b 10 00 28 	mov %e2,%d1
80003a48:	a6 75       	or %d5,%d7
80003a4a:	8f f2 01 20 	sh %d2,%d2,31
80003a4e:	0f 25 a0 40 	or %d4,%d5,%d2
80003a52:	02 43       	mov %d3,%d4
80003a54:	02 62       	mov %d2,%d6
80003a56:	00 90       	ret 
80003a58:	19 44 08 00 	ld.w %d4,[%a4]8
80003a5c:	3b 20 c0 0f 	mov %d0,-1022
80003a60:	3f 04 41 00 	jlt %d4,%d0,80003ae2 <__pack_d+0xcc>
80003a64:	3b 00 40 00 	mov %d0,1024
80003a68:	7b 00 ff 57 	movh %d5,32752
80003a6c:	7f 04 ec 7f 	jge %d4,%d0,80003a44 <__pack_d+0x2e>
80003a70:	8f f3 0f 51 	and %d5,%d3,255
80003a74:	8b 05 28 52 	ne %d5,%d5,128
80003a78:	df 05 1b 00 	jeq %d5,0,80003aae <__pack_d+0x98>
80003a7c:	8b f3 87 30 	addx %d3,%d3,127
80003a80:	8b 02 a0 20 	addc %d2,%d2,0
80003a84:	7b 00 00 52 	movh %d5,8192
80003a88:	0b 25 30 61 	lt.u %d6,%d5,%d2
80003a8c:	0b 25 70 62 	or.eq %d6,%d5,%d2
80003a90:	df 06 19 80 	jne %d6,0,80003ac2 <__pack_d+0xac>
80003a94:	1b f4 3f 40 	addi %d4,%d4,1023
80003a98:	0b 40 00 48 	mov %e4,%d4
80003a9c:	77 32 00 6c 	dextr %d6,%d2,%d3,24
80003aa0:	06 82       	sh %d2,-8
80003aa2:	b7 02 0c 7a 	insert %d7,%d2,0,20,12
80003aa6:	8f 44 01 50 	sh %d5,%d4,20
80003aaa:	1d ff cd ff 	j 80003a44 <__pack_d+0x2e>
80003aae:	8f 03 10 51 	and %d5,%d3,256
80003ab2:	df 05 e9 7f 	jeq %d5,0,80003a84 <__pack_d+0x6e>
80003ab6:	8b 03 88 30 	addx %d3,%d3,128
80003aba:	8b 02 a0 20 	addc %d2,%d2,0
80003abe:	1d ff e3 ff 	j 80003a84 <__pack_d+0x6e>
80003ac2:	77 32 80 3f 	dextr %d3,%d2,%d3,31
80003ac6:	1b 04 40 40 	addi %d4,%d4,1024
80003aca:	06 f2       	sh %d2,-1
80003acc:	1d ff e6 ff 	j 80003a98 <__pack_d+0x82>
80003ad0:	77 32 00 6c 	dextr %d6,%d2,%d3,24
80003ad4:	06 82       	sh %d2,-8
80003ad6:	b7 12 8d 79 	insert %d7,%d2,1,19,13
80003ada:	7b 00 ff 57 	movh %d5,32752
80003ade:	1d ff b3 ff 	j 80003a44 <__pack_d+0x2e>
80003ae2:	0b 40 80 40 	sub %d4,%d0,%d4
80003ae6:	8b 94 83 02 	ge %d0,%d4,57
80003aea:	df 00 ad ff 	jne %d0,0,80003a44 <__pack_d+0x2e>
80003aee:	8b 04 82 52 	ge %d5,%d4,32
80003af2:	2b 23 50 05 	seln %d0,%d5,%d3,%d2
80003af6:	ab 02 a0 75 	seln %d7,%d5,%d2,0
80003afa:	8f f4 01 51 	and %d5,%d4,31
80003afe:	8b 05 02 61 	rsub %d6,%d5,32
80003b02:	17 07 80 66 	dextr %d6,%d7,%d0,%d6
80003b06:	2b 06 40 65 	sel %d6,%d5,%d6,%d0
80003b0a:	8b 04 82 82 	ge %d8,%d4,32
80003b0e:	32 55       	rsub %d5
80003b10:	02 60       	mov %d0,%d6
80003b12:	8f f4 01 41 	and %d4,%d4,31
80003b16:	82 f6       	mov %d6,-1
80003b18:	0f 57 00 70 	sh %d7,%d7,%d5
80003b1c:	17 66 80 54 	dextr %d5,%d6,%d6,%d4
80003b20:	0f 46 00 40 	sh %d4,%d6,%d4
80003b24:	2b 45 50 58 	seln %d5,%d8,%d5,%d4
80003b28:	ab 04 a0 48 	seln %d4,%d8,%d4,0
80003b2c:	0f 43 e0 30 	andn %d3,%d3,%d4
80003b30:	0f 52 e0 20 	andn %d2,%d2,%d5
80003b34:	a6 32       	or %d2,%d3
80003b36:	02 03       	mov %d3,%d0
80003b38:	8b 02 00 35 	or.ne %d3,%d2,0
80003b3c:	8f f3 0f 51 	and %d5,%d3,255
80003b40:	82 12       	mov %d2,1
80003b42:	8b 05 08 24 	and.eq %d2,%d5,128
80003b46:	02 74       	mov %d4,%d7
80003b48:	df 02 14 80 	jne %d2,0,80003b70 <__pack_d+0x15a>
80003b4c:	8b f3 87 30 	addx %d3,%d3,127
80003b50:	8b 07 a0 20 	addc %d2,%d7,0
80003b54:	77 32 00 6c 	dextr %d6,%d2,%d3,24
80003b58:	7b 00 00 31 	movh %d3,4096
80003b5c:	8f 82 1f 70 	sh %d7,%d2,-8
80003b60:	0b 32 50 21 	ge.u %d2,%d2,%d3
80003b64:	b7 07 0c 7a 	insert %d7,%d7,0,20,12
80003b68:	8f 42 01 50 	sh %d5,%d2,20
80003b6c:	1d ff 6c ff 	j 80003a44 <__pack_d+0x2e>
80003b70:	8b 03 88 60 	addx %d6,%d3,128
80003b74:	8b 07 a0 20 	addc %d2,%d7,0
80003b78:	7b 00 00 a1 	movh %d10,4096
80003b7c:	8f 82 1f 70 	sh %d7,%d2,-8
80003b80:	77 62 00 6c 	dextr %d6,%d2,%d6,24
80003b84:	0b a2 50 21 	ge.u %d2,%d2,%d10
80003b88:	53 12 40 80 	mul.u %e8,%d2,1
80003b8c:	8f 03 10 01 	and %d0,%d3,256
80003b90:	b7 07 0c 7a 	insert %d7,%d7,0,20,12
80003b94:	8f 48 01 50 	sh %d5,%d8,20
80003b98:	df 00 56 ff 	jne %d0,0,80003a44 <__pack_d+0x2e>
80003b9c:	8f 84 1f 70 	sh %d7,%d4,-8
80003ba0:	0b a4 50 21 	ge.u %d2,%d4,%d10
80003ba4:	77 34 00 6c 	dextr %d6,%d4,%d3,24
80003ba8:	b7 07 0c 7a 	insert %d7,%d7,0,20,12
80003bac:	8f 42 01 50 	sh %d5,%d2,20
80003bb0:	1d ff 4a ff 	j 80003a44 <__pack_d+0x2e>

80003bb4 <__unpack_d>:
80003bb4:	09 48 40 09 	ld.d %e8,[%a4]
80003bb8:	3b f0 7f 00 	mov %d0,2047
80003bbc:	8f 19 1e 70 	sh %d7,%d9,-31
80003bc0:	37 09 6b 5a 	extr.u %d5,%d9,20,11
80003bc4:	b7 09 0c 6a 	insert %d6,%d9,0,20,12
80003bc8:	59 57 04 00 	st.w [%a5]4,%d7
80003bcc:	df 05 26 80 	jne %d5,0,80003c18 <__unpack_d+0x64>
80003bd0:	8b 08 20 22 	ne %d2,%d8,0
80003bd4:	8b 06 00 25 	or.ne %d2,%d6,0
80003bd8:	df 02 33 00 	jeq %d2,0,80003c3e <__unpack_d+0x8a>
80003bdc:	82 32       	mov %d2,3
80003bde:	77 86 00 34 	dextr %d3,%d6,%d8,8
80003be2:	8f 88 00 40 	sh %d4,%d8,8
80003be6:	74 52       	st.w [%a5],%d2
80003be8:	3b 10 c0 5f 	mov %d5,-1023
80003bec:	7b 00 00 61 	movh %d6,4096
80003bf0:	77 43 80 30 	dextr %d3,%d3,%d4,1
80003bf4:	02 57       	mov %d7,%d5
80003bf6:	0b 63 00 21 	eq %d2,%d3,%d6
80003bfa:	b7 02 01 20 	insert %d2,%d2,0,0,1
80003bfe:	06 14       	sh %d4,1
80003c00:	0b 63 a0 22 	or.lt.u %d2,%d3,%d6
80003c04:	c2 f5       	add %d5,-1
80003c06:	df 02 f5 ff 	jne %d2,0,80003bf0 <__unpack_d+0x3c>
80003c0a:	59 57 08 00 	st.w [%a5]8,%d7
80003c0e:	59 54 0c 00 	st.w [%a5]12,%d4
80003c12:	59 53 10 00 	st.w [%a5]16,%d3
80003c16:	00 90       	ret 
80003c18:	5f 05 16 00 	jeq %d5,%d0,80003c44 <__unpack_d+0x90>
80003c1c:	82 32       	mov %d2,3
80003c1e:	1b 15 c0 5f 	addi %d5,%d5,-1023
80003c22:	8f 88 00 40 	sh %d4,%d8,8
80003c26:	74 52       	st.w [%a5],%d2
80003c28:	77 86 00 24 	dextr %d2,%d6,%d8,8
80003c2c:	59 55 08 00 	st.w [%a5]8,%d5
80003c30:	b7 f2 01 2e 	insert %d2,%d2,15,28,1
80003c34:	59 54 0c 00 	st.w [%a5]12,%d4
80003c38:	59 52 10 00 	st.w [%a5]16,%d2
80003c3c:	00 90       	ret 
80003c3e:	82 22       	mov %d2,2
80003c40:	74 52       	st.w [%a5],%d2
80003c42:	00 90       	ret 
80003c44:	8b 08 20 52 	ne %d5,%d8,0
80003c48:	8b 06 00 55 	or.ne %d5,%d6,0
80003c4c:	df 05 05 80 	jne %d5,0,80003c56 <__unpack_d+0xa2>
80003c50:	82 42       	mov %d2,4
80003c52:	74 52       	st.w [%a5],%d2
80003c54:	00 90       	ret 
80003c56:	77 89 00 34 	dextr %d3,%d9,%d8,8
80003c5a:	37 09 e1 49 	extr.u %d4,%d9,19,1
80003c5e:	b7 03 85 3d 	insert %d3,%d3,0,27,5
80003c62:	8f 88 00 20 	sh %d2,%d8,8
80003c66:	74 54       	st.w [%a5],%d4
80003c68:	59 52 0c 00 	st.w [%a5]12,%d2
80003c6c:	59 53 10 00 	st.w [%a5]16,%d3
80003c70:	00 90       	ret 

80003c72 <__fpcmp_parts_d>:
80003c72:	54 43       	ld.w %d3,[%a4]
80003c74:	82 12       	mov %d2,1
80003c76:	bf 23 45 80 	jlt.u %d3,2,80003d00 <__fpcmp_parts_d+0x8e>
80003c7a:	54 54       	ld.w %d4,[%a5]
80003c7c:	bf 24 42 80 	jlt.u %d4,2,80003d00 <__fpcmp_parts_d+0x8e>
80003c80:	8b 44 00 52 	eq %d5,%d4,4
80003c84:	8b 43 00 54 	and.eq %d5,%d3,4
80003c88:	df 05 50 80 	jne %d5,0,80003d28 <__fpcmp_parts_d+0xb6>
80003c8c:	df 43 45 00 	jeq %d3,4,80003d16 <__fpcmp_parts_d+0xa4>
80003c90:	df 44 3d 00 	jeq %d4,4,80003d0a <__fpcmp_parts_d+0x98>
80003c94:	8b 24 00 52 	eq %d5,%d4,2
80003c98:	8b 23 00 54 	and.eq %d5,%d3,2
80003c9c:	82 02       	mov %d2,0
80003c9e:	df 05 31 80 	jne %d5,0,80003d00 <__fpcmp_parts_d+0x8e>
80003ca2:	df 23 34 00 	jeq %d3,2,80003d0a <__fpcmp_parts_d+0x98>
80003ca6:	19 42 04 00 	ld.w %d2,[%a4]4
80003caa:	df 24 2c 00 	jeq %d4,2,80003d02 <__fpcmp_parts_d+0x90>
80003cae:	19 53 04 00 	ld.w %d3,[%a5]4
80003cb2:	5f 23 28 80 	jne %d3,%d2,80003d02 <__fpcmp_parts_d+0x90>
80003cb6:	19 44 08 00 	ld.w %d4,[%a4]8
80003cba:	19 53 08 00 	ld.w %d3,[%a5]8
80003cbe:	3f 43 22 00 	jlt %d3,%d4,80003d02 <__fpcmp_parts_d+0x90>
80003cc2:	3f 34 2f 00 	jlt %d4,%d3,80003d20 <__fpcmp_parts_d+0xae>
80003cc6:	19 45 10 00 	ld.w %d5,[%a4]16
80003cca:	19 56 10 00 	ld.w %d6,[%a5]16
80003cce:	19 40 0c 00 	ld.w %d0,[%a4]12
80003cd2:	0b 65 00 41 	eq %d4,%d5,%d6
80003cd6:	19 57 0c 00 	ld.w %d7,[%a5]12
80003cda:	02 43       	mov %d3,%d4
80003cdc:	0b 07 50 32 	and.ge.u %d3,%d7,%d0
80003ce0:	0b 70 50 42 	and.ge.u %d4,%d0,%d7
80003ce4:	0b 65 a0 32 	or.lt.u %d3,%d5,%d6
80003ce8:	0b 56 a0 42 	or.lt.u %d4,%d6,%d5
80003cec:	82 f5       	mov %d5,-1
80003cee:	ab 15 a0 52 	seln %d5,%d2,%d5,1
80003cf2:	82 16       	mov %d6,1
80003cf4:	ab f6 bf 22 	seln %d2,%d2,%d6,-1
80003cf8:	ab 05 a0 44 	seln %d4,%d4,%d5,0
80003cfc:	2b 24 40 23 	sel %d2,%d3,%d4,%d2
80003d00:	00 90       	ret 
80003d02:	82 13       	mov %d3,1
80003d04:	ab f3 bf 22 	seln %d2,%d2,%d3,-1
80003d08:	00 90       	ret 
80003d0a:	19 53 04 00 	ld.w %d3,[%a5]4
80003d0e:	82 f2       	mov %d2,-1
80003d10:	ab 12 a0 23 	seln %d2,%d3,%d2,1
80003d14:	00 90       	ret 
80003d16:	19 43 04 00 	ld.w %d3,[%a4]4
80003d1a:	ab f2 bf 23 	seln %d2,%d3,%d2,-1
80003d1e:	00 90       	ret 
80003d20:	82 f3       	mov %d3,-1
80003d22:	ab 13 a0 22 	seln %d2,%d2,%d3,1
80003d26:	00 90       	ret 
80003d28:	19 53 04 00 	ld.w %d3,[%a5]4
80003d2c:	19 42 04 00 	ld.w %d2,[%a4]4
80003d30:	0b 23 80 20 	sub %d2,%d3,%d2
80003d34:	00 90       	ret 

80003d36 <__do_global_ctors_aux>:
80003d36:	91 00 00 28 	movh.a %a2,32768
80003d3a:	d9 22 e8 53 	lea %a2,[%a2]15720 <80003d68 <__CTOR_END__>>
80003d3e:	19 22 fc ff 	ld.w %d2,[%a2]-4 <7ffffffc <__CSA0_END+0xffc43fc>>
80003d42:	d9 23 fc ff 	lea %a3,[%a2]-4 <7ffffffc <__CSA0_END+0xffc43fc>>
80003d46:	df f2 0a 00 	jeq %d2,-1,80003d5a <__do_global_ctors_aux+0x24>
80003d4a:	40 3c       	mov.aa %a12,%a3
80003d4c:	60 22       	mov.a %a2,%d2
80003d4e:	b0 cc       	add.a %a12,-4
80003d50:	2d 02 00 00 	calli %a2
80003d54:	54 c2       	ld.w %d2,[%a12]
80003d56:	df f2 fb ff 	jne %d2,-1,80003d4c <__do_global_ctors_aux+0x16>
80003d5a:	00 90       	ret 
